ARM GAS  C:\Users\a83571\AppData\Local\Temp\ccY2o2vk.s 			page 1


   1              		.cpu cortex-m0
   2              		.fpu softvfp
   3              		.eabi_attribute 20, 1
   4              		.eabi_attribute 21, 1
   5              		.eabi_attribute 23, 3
   6              		.eabi_attribute 24, 1
   7              		.eabi_attribute 25, 1
   8              		.eabi_attribute 26, 1
   9              		.eabi_attribute 30, 1
  10              		.eabi_attribute 34, 0
  11              		.eabi_attribute 18, 4
  12              		.code	16
  13              		.file	"ble_event.c"
  14              		.text
  15              	.Ltext0:
  16              		.cfi_sections	.debug_frame
  17              		.section	.text.Ble_ProcessGattWriteEvent,"ax",%progbits
  18              		.align	2
  19              		.global	Ble_ProcessGattWriteEvent
  20              		.code	16
  21              		.thumb_func
  22              		.type	Ble_ProcessGattWriteEvent, %function
  23              	Ble_ProcessGattWriteEvent:
  24              	.LFB37:
  25              		.file 1 "ble_event.c"
   1:ble_event.c   **** /* ========================================
   2:ble_event.c   ****  *
   3:ble_event.c   ****  * Copyright YOUR COMPANY, THE YEAR
   4:ble_event.c   ****  * All Rights Reserved
   5:ble_event.c   ****  * UNPUBLISHED, LICENSED SOFTWARE.
   6:ble_event.c   ****  *
   7:ble_event.c   ****  * CONFIDENTIAL AND PROPRIETARY INFORMATION
   8:ble_event.c   ****  * WHICH IS THE PROPERTY OF your company.
   9:ble_event.c   ****  *
  10:ble_event.c   ****  * ========================================
  11:ble_event.c   **** */
  12:ble_event.c   **** #include <project.h>
  13:ble_event.c   **** #include "ble_event.h"
  14:ble_event.c   **** #include "RGB.h"
  15:ble_event.c   **** #include "slider.h"
  16:ble_event.c   **** 
  17:ble_event.c   **** void Ble_ProcessGattWriteEvent(void* eventParam)
  18:ble_event.c   **** {
  26              		.loc 1 18 0
  27              		.cfi_startproc
  28              	.LVL0:
  29 0000 30B5     		push	{r4, r5, lr}
  30              		.cfi_def_cfa_offset 12
  31              		.cfi_offset 4, -12
  32              		.cfi_offset 5, -8
  33              		.cfi_offset 14, -4
  34 0002 83B0     		sub	sp, sp, #12
  35              		.cfi_def_cfa_offset 24
  36 0004 041C     		mov	r4, r0
  37              	.LVL1:
  19:ble_event.c   ****     CYBLE_GATTS_WRITE_REQ_PARAM_T* writeReqParam;
  20:ble_event.c   ****     CYBLE_GATT_ERR_CODE_T errorCode;
ARM GAS  C:\Users\a83571\AppData\Local\Temp\ccY2o2vk.s 			page 2


  21:ble_event.c   ****     writeReqParam = (CYBLE_GATTS_WRITE_REQ_PARAM_T*)eventParam;
  22:ble_event.c   ****     // write RGB daa
  23:ble_event.c   ****     if (writeReqParam->handleValPair.attrHandle == CYBLE_RGB_LED_RGB_DATA_CHAR_HANDLE)
  38              		.loc 1 23 0
  39 0006 8389     		ldrh	r3, [r0, #12]
  40 0008 152B     		cmp	r3, #21
  41 000a 1DD1     		bne	.L2
  24:ble_event.c   ****     {
  25:ble_event.c   ****         RGB_SetHue(*((PHUEVALUE)writeReqParam->handleValPair.value.val));
  42              		.loc 1 25 0
  43 000c 4568     		ldr	r5, [r0, #4]
  44 000e 2978     		ldrb	r1, [r5]
  45 0010 6B78     		ldrb	r3, [r5, #1]
  46 0012 1B02     		lsl	r3, r3, #8
  47 0014 0B43     		orr	r3, r1
  48 0016 1A1C     		mov	r2, r3
  49 0018 A878     		ldrb	r0, [r5, #2]
  50              	.LVL2:
  51 001a 0004     		lsl	r0, r0, #16
  52 001c 031C     		mov	r3, r0
  53 001e 1343     		orr	r3, r2
  54 0020 E878     		ldrb	r0, [r5, #3]
  55 0022 0006     		lsl	r0, r0, #24
  56 0024 1843     		orr	r0, r3
  57 0026 FFF7FEFF 		bl	RGB_SetHue
  58              	.LVL3:
  26:ble_event.c   ****         errorCode = CyBle_GattsWriteAttributeValue(&(writeReqParam->handleValPair), 0, &cyBle_connH
  59              		.loc 1 26 0
  60 002a 201D     		add	r0, r4, #4
  61 002c 0021     		mov	r1, #0
  62 002e 384A     		ldr	r2, .L11
  63 0030 4023     		mov	r3, #64
  64 0032 FFF7FEFF 		bl	CyBle_GattsWriteAttributeValue
  65              	.LVL4:
  27:ble_event.c   ****         // send response if no error
  28:ble_event.c   ****         if (errorCode == CYBLE_GATT_ERR_NONE)
  66              		.loc 1 28 0
  67 0036 0028     		cmp	r0, #0
  68 0038 06D1     		bne	.L2
  29:ble_event.c   ****             CyBle_GattsWriteRsp(cyBle_connHandle);
  69              		.loc 1 29 0
  70 003a 354A     		ldr	r2, .L11
  71 003c 1378     		ldrb	r3, [r2]
  72 003e 5078     		ldrb	r0, [r2, #1]
  73              	.LVL5:
  74 0040 0002     		lsl	r0, r0, #8
  75 0042 1843     		orr	r0, r3
  76 0044 FFF7FEFF 		bl	CyBle_GattsWriteRsp
  77              	.LVL6:
  78              	.L2:
  30:ble_event.c   ****     }   
  31:ble_event.c   ****     
  32:ble_event.c   ****     // change RGB notification status
  33:ble_event.c   ****     if (writeReqParam->handleValPair.attrHandle == CYBLE_RGB_LED_RGB_DATA_CLIENT_CHARACTERISTIC_CON
  79              		.loc 1 33 0
  80 0048 A389     		ldrh	r3, [r4, #12]
  81 004a 172B     		cmp	r3, #23
ARM GAS  C:\Users\a83571\AppData\Local\Temp\ccY2o2vk.s 			page 3


  82 004c 2DD1     		bne	.L3
  34:ble_event.c   ****     {
  35:ble_event.c   ****         errorCode = CyBle_GattsWriteAttributeValue(&(writeReqParam->handleValPair), 0, &cyBle_connH
  83              		.loc 1 35 0
  84 004e 201D     		add	r0, r4, #4
  85 0050 0021     		mov	r1, #0
  86 0052 2F4A     		ldr	r2, .L11
  87 0054 2933     		add	r3, r3, #41
  88 0056 FFF7FEFF 		bl	CyBle_GattsWriteAttributeValue
  89              	.LVL7:
  90 005a 051C     		mov	r5, r0
  91              	.LVL8:
  36:ble_event.c   ****         if (0 == (writeReqParam->handleValPair.value.val [CYBLE_RGB_LED_RGB_DATA_CLIENT_CHARACTERIS
  92              		.loc 1 36 0
  93 005c 6368     		ldr	r3, [r4, #4]
  94 005e 5B78     		ldrb	r3, [r3, #1]
  95 0060 002B     		cmp	r3, #0
  96 0062 02D1     		bne	.L4
  37:ble_event.c   ****         {
  38:ble_event.c   ****             RGB_DisableNotification();  
  97              		.loc 1 38 0
  98 0064 FFF7FEFF 		bl	RGB_DisableNotification
  99              	.LVL9:
 100 0068 16E0     		b	.L5
 101              	.LVL10:
 102              	.L4:
  39:ble_event.c   ****         }                        
  40:ble_event.c   ****         else if (1 == (writeReqParam->handleValPair.value.val [CYBLE_RGB_LED_RGB_DATA_CLIENT_CHARAC
 103              		.loc 1 40 0
 104 006a 012B     		cmp	r3, #1
 105 006c 02D1     		bne	.L6
  41:ble_event.c   ****         {
  42:ble_event.c   ****             RGB_EnableNotification(); 
 106              		.loc 1 42 0
 107 006e FFF7FEFF 		bl	RGB_EnableNotification
 108              	.LVL11:
 109 0072 11E0     		b	.L5
 110              	.LVL12:
 111              	.L6:
  43:ble_event.c   ****         }               
  44:ble_event.c   ****         else if (4 <= (writeReqParam->handleValPair.value.val [CYBLE_RGB_LED_RGB_DATA_CLIENT_CHARAC
 112              		.loc 1 44 0
 113 0074 032B     		cmp	r3, #3
 114 0076 0FD9     		bls	.L5
 115              	.LBB2:
  45:ble_event.c   ****         {
  46:ble_event.c   ****             //Invalid PDU, stop notifications
  47:ble_event.c   ****             RGB_DisableNotification(); 
 116              		.loc 1 47 0
 117 0078 FFF7FEFF 		bl	RGB_DisableNotification
 118              	.LVL13:
  48:ble_event.c   ****                         
  49:ble_event.c   ****             //Inform the user that they are being stupid
  50:ble_event.c   ****             CYBLE_GATTS_ERR_PARAM_T error_param;
  51:ble_event.c   ****             error_param.opcode = CYBLE_GATT_WRITE_REQ;
 119              		.loc 1 51 0
 120 007c 01A9     		add	r1, sp, #4
ARM GAS  C:\Users\a83571\AppData\Local\Temp\ccY2o2vk.s 			page 4


 121 007e 1223     		mov	r3, #18
 122 0080 8B70     		strb	r3, [r1, #2]
  52:ble_event.c   ****             error_param.attrHandle = writeReqParam->handleValPair.attrHandle;
 123              		.loc 1 52 0
 124 0082 A389     		ldrh	r3, [r4, #12]
 125 0084 0B80     		strh	r3, [r1]
  53:ble_event.c   ****             error_param.errorCode = 0x04;
 126              		.loc 1 53 0
 127 0086 0423     		mov	r3, #4
 128 0088 CB70     		strb	r3, [r1, #3]
  54:ble_event.c   ****             //Send Error Response 
  55:ble_event.c   ****             (void)CyBle_GattsErrorRsp(cyBle_connHandle, &error_param);
 129              		.loc 1 55 0
 130 008a 214A     		ldr	r2, .L11
 131 008c 1378     		ldrb	r3, [r2]
 132 008e 5078     		ldrb	r0, [r2, #1]
 133 0090 0002     		lsl	r0, r0, #8
 134 0092 1843     		orr	r0, r3
 135 0094 FFF7FEFF 		bl	CyBle_GattsErrorRsp
 136              	.LVL14:
 137              	.L5:
 138              	.LBE2:
  56:ble_event.c   ****                         
  57:ble_event.c   ****         }
  58:ble_event.c   ****         // send response if no error
  59:ble_event.c   ****         if (errorCode == CYBLE_GATT_ERR_NONE)
 139              		.loc 1 59 0
 140 0098 002D     		cmp	r5, #0
 141 009a 06D1     		bne	.L3
  60:ble_event.c   ****             CyBle_GattsWriteRsp(cyBle_connHandle);
 142              		.loc 1 60 0
 143 009c 1C4A     		ldr	r2, .L11
 144 009e 1378     		ldrb	r3, [r2]
 145 00a0 5078     		ldrb	r0, [r2, #1]
 146 00a2 0002     		lsl	r0, r0, #8
 147 00a4 1843     		orr	r0, r3
 148 00a6 FFF7FEFF 		bl	CyBle_GattsWriteRsp
 149              	.LVL15:
 150              	.L3:
  61:ble_event.c   ****     }   
  62:ble_event.c   ****     // change CAPSENSE notification status
  63:ble_event.c   ****     if (writeReqParam->handleValPair.attrHandle == CYBLE_CAPSLIDER_SLIDER_POS_CLIENT_CHARACTERISTIC
 151              		.loc 1 63 0
 152 00aa A389     		ldrh	r3, [r4, #12]
 153 00ac 122B     		cmp	r3, #18
 154 00ae 2DD1     		bne	.L1
  64:ble_event.c   ****     {
  65:ble_event.c   ****         errorCode = CyBle_GattsWriteAttributeValue(&(writeReqParam->handleValPair), 0, &cyBle_connH
 155              		.loc 1 65 0
 156 00b0 201D     		add	r0, r4, #4
 157 00b2 0021     		mov	r1, #0
 158 00b4 164A     		ldr	r2, .L11
 159 00b6 2E33     		add	r3, r3, #46
 160 00b8 FFF7FEFF 		bl	CyBle_GattsWriteAttributeValue
 161              	.LVL16:
 162 00bc 051C     		mov	r5, r0
 163              	.LVL17:
ARM GAS  C:\Users\a83571\AppData\Local\Temp\ccY2o2vk.s 			page 5


  66:ble_event.c   ****         if (0 == (writeReqParam->handleValPair.value.val [CYBLE_CAPSLIDER_SLIDER_POS_CLIENT_CHARACT
 164              		.loc 1 66 0
 165 00be 6368     		ldr	r3, [r4, #4]
 166 00c0 5B78     		ldrb	r3, [r3, #1]
 167 00c2 002B     		cmp	r3, #0
 168 00c4 02D1     		bne	.L8
  67:ble_event.c   ****         {
  68:ble_event.c   ****             Slider_DisableNotification();  
 169              		.loc 1 68 0
 170 00c6 FFF7FEFF 		bl	Slider_DisableNotification
 171              	.LVL18:
 172 00ca 16E0     		b	.L9
 173              	.LVL19:
 174              	.L8:
  69:ble_event.c   ****         }                        
  70:ble_event.c   ****         else if (1 == (writeReqParam->handleValPair.value.val [CYBLE_CAPSLIDER_SLIDER_POS_CLIENT_CH
 175              		.loc 1 70 0
 176 00cc 012B     		cmp	r3, #1
 177 00ce 02D1     		bne	.L10
  71:ble_event.c   ****         {
  72:ble_event.c   ****             Slider_EnableNotification(); 
 178              		.loc 1 72 0
 179 00d0 FFF7FEFF 		bl	Slider_EnableNotification
 180              	.LVL20:
 181 00d4 11E0     		b	.L9
 182              	.LVL21:
 183              	.L10:
  73:ble_event.c   ****         }               
  74:ble_event.c   ****         else if (4 <= (writeReqParam->handleValPair.value.val [CYBLE_CAPSLIDER_SLIDER_POS_CLIENT_CH
 184              		.loc 1 74 0
 185 00d6 032B     		cmp	r3, #3
 186 00d8 0FD9     		bls	.L9
 187              	.LBB3:
  75:ble_event.c   ****         {
  76:ble_event.c   ****             //Invalid PDU, stop notifications
  77:ble_event.c   ****             Slider_DisableNotification(); 
 188              		.loc 1 77 0
 189 00da FFF7FEFF 		bl	Slider_DisableNotification
 190              	.LVL22:
  78:ble_event.c   ****                         
  79:ble_event.c   ****             //Inform the user that they are being stupid
  80:ble_event.c   ****             CYBLE_GATTS_ERR_PARAM_T error_param;
  81:ble_event.c   ****             error_param.opcode = CYBLE_GATT_WRITE_REQ;
 191              		.loc 1 81 0
 192 00de 01A9     		add	r1, sp, #4
 193 00e0 1223     		mov	r3, #18
 194 00e2 8B70     		strb	r3, [r1, #2]
  82:ble_event.c   ****             error_param.attrHandle = writeReqParam->handleValPair.attrHandle;
 195              		.loc 1 82 0
 196 00e4 A389     		ldrh	r3, [r4, #12]
 197 00e6 0B80     		strh	r3, [r1]
  83:ble_event.c   ****             error_param.errorCode = 0x04;
 198              		.loc 1 83 0
 199 00e8 0423     		mov	r3, #4
 200 00ea CB70     		strb	r3, [r1, #3]
  84:ble_event.c   ****             //Send Error Response 
  85:ble_event.c   ****             (void)CyBle_GattsErrorRsp(cyBle_connHandle, &error_param);
ARM GAS  C:\Users\a83571\AppData\Local\Temp\ccY2o2vk.s 			page 6


 201              		.loc 1 85 0
 202 00ec 084A     		ldr	r2, .L11
 203 00ee 1378     		ldrb	r3, [r2]
 204 00f0 5078     		ldrb	r0, [r2, #1]
 205 00f2 0002     		lsl	r0, r0, #8
 206 00f4 1843     		orr	r0, r3
 207 00f6 FFF7FEFF 		bl	CyBle_GattsErrorRsp
 208              	.LVL23:
 209              	.L9:
 210              	.LBE3:
  86:ble_event.c   ****                         
  87:ble_event.c   ****         }
  88:ble_event.c   ****         if (errorCode == CYBLE_GATT_ERR_NONE)
 211              		.loc 1 88 0
 212 00fa 002D     		cmp	r5, #0
 213 00fc 06D1     		bne	.L1
  89:ble_event.c   ****             CyBle_GattsWriteRsp(cyBle_connHandle);
 214              		.loc 1 89 0
 215 00fe 044A     		ldr	r2, .L11
 216 0100 1378     		ldrb	r3, [r2]
 217 0102 5078     		ldrb	r0, [r2, #1]
 218 0104 0002     		lsl	r0, r0, #8
 219 0106 1843     		orr	r0, r3
 220 0108 FFF7FEFF 		bl	CyBle_GattsWriteRsp
 221              	.LVL24:
 222              	.L1:
  90:ble_event.c   ****     }
  91:ble_event.c   **** }
 223              		.loc 1 91 0
 224 010c 03B0     		add	sp, sp, #12
 225              		@ sp needed
 226              	.LVL25:
 227 010e 30BD     		pop	{r4, r5, pc}
 228              	.L12:
 229              		.align	2
 230              	.L11:
 231 0110 00000000 		.word	cyBle_connHandle
 232              		.cfi_endproc
 233              	.LFE37:
 234              		.size	Ble_ProcessGattWriteEvent, .-Ble_ProcessGattWriteEvent
 235              		.section	.text.Ble_ProcessGappDisconnectedEvent,"ax",%progbits
 236              		.align	2
 237              		.global	Ble_ProcessGappDisconnectedEvent
 238              		.code	16
 239              		.thumb_func
 240              		.type	Ble_ProcessGappDisconnectedEvent, %function
 241              	Ble_ProcessGappDisconnectedEvent:
 242              	.LFB38:
  92:ble_event.c   **** 
  93:ble_event.c   **** void Ble_ProcessGappDisconnectedEvent()
  94:ble_event.c   **** {
 243              		.loc 1 94 0
 244              		.cfi_startproc
 245 0000 30B5     		push	{r4, r5, lr}
 246              		.cfi_def_cfa_offset 12
 247              		.cfi_offset 4, -12
 248              		.cfi_offset 5, -8
ARM GAS  C:\Users\a83571\AppData\Local\Temp\ccY2o2vk.s 			page 7


 249              		.cfi_offset 14, -4
 250 0002 85B0     		sub	sp, sp, #20
 251              		.cfi_def_cfa_offset 32
  95:ble_event.c   ****     CYBLE_GATT_HANDLE_VALUE_PAIR_T attrConfiguration;
  96:ble_event.c   ****     uint16 notifyValue = 0;
 252              		.loc 1 96 0
 253 0004 6B46     		mov	r3, sp
 254 0006 0022     		mov	r2, #0
 255 0008 5A80     		strh	r2, [r3, #2]
 256 000a 0233     		add	r3, r3, #2
  97:ble_event.c   ****     attrConfiguration.attrHandle = CYBLE_RGB_LED_RGB_DATA_CLIENT_CHARACTERISTIC_CONFIGURATION_DESC_
 257              		.loc 1 97 0
 258 000c 01AC     		add	r4, sp, #4
 259 000e 1732     		add	r2, r2, #23
 260 0010 2281     		strh	r2, [r4, #8]
  98:ble_event.c   ****     attrConfiguration.value.len = sizeof(uint16);
 261              		.loc 1 98 0
 262 0012 153A     		sub	r2, r2, #21
 263 0014 A280     		strh	r2, [r4, #4]
  99:ble_event.c   ****     attrConfiguration.value.val = (uint8*)(&notifyValue);
 264              		.loc 1 99 0
 265 0016 0193     		str	r3, [sp, #4]
 100:ble_event.c   ****     CyBle_GattsWriteAttributeValue(&attrConfiguration, 0, &cyBle_connHandle, CYBLE_GATT_DB_LOCALLY_
 266              		.loc 1 100 0
 267 0018 0B4D     		ldr	r5, .L14
 268 001a 201C     		mov	r0, r4
 269 001c 0021     		mov	r1, #0
 270 001e 2A1C     		mov	r2, r5
 271 0020 0023     		mov	r3, #0
 272 0022 FFF7FEFF 		bl	CyBle_GattsWriteAttributeValue
 273              	.LVL26:
 101:ble_event.c   ****     attrConfiguration.attrHandle = CYBLE_CAPSLIDER_SLIDER_POS_CLIENT_CHARACTERISTIC_CONFIGURATION_D
 274              		.loc 1 101 0
 275 0026 1223     		mov	r3, #18
 276 0028 2381     		strh	r3, [r4, #8]
 102:ble_event.c   ****     CyBle_GattsWriteAttributeValue(&attrConfiguration, 0, &cyBle_connHandle, CYBLE_GATT_DB_LOCALLY_
 277              		.loc 1 102 0
 278 002a 201C     		mov	r0, r4
 279 002c 0021     		mov	r1, #0
 280 002e 2A1C     		mov	r2, r5
 281 0030 0023     		mov	r3, #0
 282 0032 FFF7FEFF 		bl	CyBle_GattsWriteAttributeValue
 283              	.LVL27:
 103:ble_event.c   ****     CyBle_GappStartAdvertisement(CYBLE_ADVERTISING_FAST);
 284              		.loc 1 103 0
 285 0036 0020     		mov	r0, #0
 286 0038 FFF7FEFF 		bl	CyBle_GappStartAdvertisement
 287              	.LVL28:
 104:ble_event.c   ****     // disable all the notification
 105:ble_event.c   ****     RGB_DisableNotification();
 288              		.loc 1 105 0
 289 003c FFF7FEFF 		bl	RGB_DisableNotification
 290              	.LVL29:
 106:ble_event.c   ****     Slider_DisableNotification();
 291              		.loc 1 106 0
 292 0040 FFF7FEFF 		bl	Slider_DisableNotification
 293              	.LVL30:
ARM GAS  C:\Users\a83571\AppData\Local\Temp\ccY2o2vk.s 			page 8


 107:ble_event.c   ****     // write notification status
 108:ble_event.c   **** }
 294              		.loc 1 108 0
 295 0044 05B0     		add	sp, sp, #20
 296              		@ sp needed
 297 0046 30BD     		pop	{r4, r5, pc}
 298              	.L15:
 299              		.align	2
 300              	.L14:
 301 0048 00000000 		.word	cyBle_connHandle
 302              		.cfi_endproc
 303              	.LFE38:
 304              		.size	Ble_ProcessGappDisconnectedEvent, .-Ble_ProcessGappDisconnectedEvent
 305              		.text
 306              	.Letext0:
 307              		.file 2 "Generated_Source\\PSoC4/cytypes.h"
 308              		.file 3 "Generated_Source\\PSoC4/BLE_Stack.h"
 309              		.file 4 "Generated_Source\\PSoC4/BLE_StackGatt.h"
 310              		.file 5 "Generated_Source\\PSoC4/BLE_StackGattServer.h"
 311              		.file 6 "RGB.h"
 312              		.file 7 "slider.h"
 313              		.file 8 "Generated_Source\\PSoC4/BLE_StackGattDb.h"
 314              		.file 9 "Generated_Source\\PSoC4/BLE.h"
 315              		.file 10 "Generated_Source\\PSoC4/BLE_eventHandler.h"