ARM GAS  C:\Users\a83571\AppData\Local\Temp\cculJ8Gd.s 			page 1


   1              		.cpu cortex-m0
   2              		.fpu softvfp
   3              		.eabi_attribute 20, 1
   4              		.eabi_attribute 21, 1
   5              		.eabi_attribute 23, 3
   6              		.eabi_attribute 24, 1
   7              		.eabi_attribute 25, 1
   8              		.eabi_attribute 26, 1
   9              		.eabi_attribute 30, 1
  10              		.eabi_attribute 34, 0
  11              		.eabi_attribute 18, 4
  12              		.code	16
  13              		.file	"cyfitter_cfg.c"
  14              		.text
  15              	.Ltext0:
  16              		.cfi_sections	.debug_frame
  17              		.section	.text.cfg_write_bytes32,"ax",%progbits
  18              		.align	2
  19              		.code	16
  20              		.thumb_func
  21              		.type	cfg_write_bytes32, %function
  22              	cfg_write_bytes32:
  23              	.LFB5:
  24              		.file 1 "Generated_Source\\PSoC4\\cyfitter_cfg.c"
   1:Generated_Source\PSoC4/cyfitter_cfg.c **** /*******************************************************************************
   2:Generated_Source\PSoC4/cyfitter_cfg.c **** * File Name: cyfitter_cfg.c
   3:Generated_Source\PSoC4/cyfitter_cfg.c **** * 
   4:Generated_Source\PSoC4/cyfitter_cfg.c **** * PSoC Creator  4.0 Update 1
   5:Generated_Source\PSoC4/cyfitter_cfg.c **** *
   6:Generated_Source\PSoC4/cyfitter_cfg.c **** * Description:
   7:Generated_Source\PSoC4/cyfitter_cfg.c **** * This file contains device initialization code.
   8:Generated_Source\PSoC4/cyfitter_cfg.c **** * Except for the user defined sections in CyClockStartupError(), this file should not be modified.
   9:Generated_Source\PSoC4/cyfitter_cfg.c **** * This file is automatically generated by PSoC Creator.
  10:Generated_Source\PSoC4/cyfitter_cfg.c **** *
  11:Generated_Source\PSoC4/cyfitter_cfg.c **** ********************************************************************************
  12:Generated_Source\PSoC4/cyfitter_cfg.c **** * Copyright (c) 2007-2016 Cypress Semiconductor.  All rights reserved.
  13:Generated_Source\PSoC4/cyfitter_cfg.c **** * You may use this file only in accordance with the license, terms, conditions, 
  14:Generated_Source\PSoC4/cyfitter_cfg.c **** * disclaimers, and limitations in the end user license agreement accompanying 
  15:Generated_Source\PSoC4/cyfitter_cfg.c **** * the software package with which this file was provided.
  16:Generated_Source\PSoC4/cyfitter_cfg.c **** ********************************************************************************/
  17:Generated_Source\PSoC4/cyfitter_cfg.c **** 
  18:Generated_Source\PSoC4/cyfitter_cfg.c **** #include <string.h>
  19:Generated_Source\PSoC4/cyfitter_cfg.c **** #include "cytypes.h"
  20:Generated_Source\PSoC4/cyfitter_cfg.c **** #include "cydevice_trm.h"
  21:Generated_Source\PSoC4/cyfitter_cfg.c **** #include "cyfitter.h"
  22:Generated_Source\PSoC4/cyfitter_cfg.c **** #include "CyLib.h"
  23:Generated_Source\PSoC4/cyfitter_cfg.c **** #include "CyLFClk.h"
  24:Generated_Source\PSoC4/cyfitter_cfg.c **** #include "cyfitter_cfg.h"
  25:Generated_Source\PSoC4/cyfitter_cfg.c **** #include "cyapicallbacks.h"
  26:Generated_Source\PSoC4/cyfitter_cfg.c **** 
  27:Generated_Source\PSoC4/cyfitter_cfg.c **** 
  28:Generated_Source\PSoC4/cyfitter_cfg.c **** #if defined(__GNUC__) || defined(__ARMCC_VERSION)
  29:Generated_Source\PSoC4/cyfitter_cfg.c ****     #define CYPACKED 
  30:Generated_Source\PSoC4/cyfitter_cfg.c ****     #define CYPACKED_ATTR __attribute__ ((packed))
  31:Generated_Source\PSoC4/cyfitter_cfg.c ****     #define CYALIGNED __attribute__ ((aligned))
  32:Generated_Source\PSoC4/cyfitter_cfg.c ****     #define CY_CFG_UNUSED __attribute__ ((unused))
  33:Generated_Source\PSoC4/cyfitter_cfg.c ****     #ifndef CY_CFG_SECTION
ARM GAS  C:\Users\a83571\AppData\Local\Temp\cculJ8Gd.s 			page 2


  34:Generated_Source\PSoC4/cyfitter_cfg.c ****         #define CY_CFG_SECTION __attribute__ ((section(".psocinit")))
  35:Generated_Source\PSoC4/cyfitter_cfg.c ****     #endif
  36:Generated_Source\PSoC4/cyfitter_cfg.c ****     
  37:Generated_Source\PSoC4/cyfitter_cfg.c ****     #if defined(__ARMCC_VERSION)
  38:Generated_Source\PSoC4/cyfitter_cfg.c ****         #define CY_CFG_MEMORY_BARRIER() __memory_changed()
  39:Generated_Source\PSoC4/cyfitter_cfg.c ****     #else
  40:Generated_Source\PSoC4/cyfitter_cfg.c ****         #define CY_CFG_MEMORY_BARRIER() __sync_synchronize()
  41:Generated_Source\PSoC4/cyfitter_cfg.c ****     #endif
  42:Generated_Source\PSoC4/cyfitter_cfg.c ****     
  43:Generated_Source\PSoC4/cyfitter_cfg.c **** #elif defined(__ICCARM__)
  44:Generated_Source\PSoC4/cyfitter_cfg.c ****     #include <intrinsics.h>
  45:Generated_Source\PSoC4/cyfitter_cfg.c **** 
  46:Generated_Source\PSoC4/cyfitter_cfg.c ****     #define CYPACKED __packed
  47:Generated_Source\PSoC4/cyfitter_cfg.c ****     #define CYPACKED_ATTR 
  48:Generated_Source\PSoC4/cyfitter_cfg.c ****     #define CYALIGNED _Pragma("data_alignment=4")
  49:Generated_Source\PSoC4/cyfitter_cfg.c ****     #define CY_CFG_UNUSED _Pragma("diag_suppress=Pe177")
  50:Generated_Source\PSoC4/cyfitter_cfg.c ****     #define CY_CFG_SECTION _Pragma("location=\".psocinit\"")
  51:Generated_Source\PSoC4/cyfitter_cfg.c ****     
  52:Generated_Source\PSoC4/cyfitter_cfg.c ****     #define CY_CFG_MEMORY_BARRIER() __DMB()
  53:Generated_Source\PSoC4/cyfitter_cfg.c ****     
  54:Generated_Source\PSoC4/cyfitter_cfg.c **** #else
  55:Generated_Source\PSoC4/cyfitter_cfg.c ****     #error Unsupported toolchain
  56:Generated_Source\PSoC4/cyfitter_cfg.c **** #endif
  57:Generated_Source\PSoC4/cyfitter_cfg.c **** 
  58:Generated_Source\PSoC4/cyfitter_cfg.c **** 
  59:Generated_Source\PSoC4/cyfitter_cfg.c **** CY_CFG_UNUSED
  60:Generated_Source\PSoC4/cyfitter_cfg.c **** static void CYMEMZERO(void *s, size_t n);
  61:Generated_Source\PSoC4/cyfitter_cfg.c **** CY_CFG_UNUSED
  62:Generated_Source\PSoC4/cyfitter_cfg.c **** static void CYMEMZERO(void *s, size_t n)
  63:Generated_Source\PSoC4/cyfitter_cfg.c **** {
  64:Generated_Source\PSoC4/cyfitter_cfg.c **** 	(void)memset(s, 0, n);
  65:Generated_Source\PSoC4/cyfitter_cfg.c **** }
  66:Generated_Source\PSoC4/cyfitter_cfg.c **** CY_CFG_UNUSED
  67:Generated_Source\PSoC4/cyfitter_cfg.c **** static void CYCONFIGCPY(void *dest, const void *src, size_t n);
  68:Generated_Source\PSoC4/cyfitter_cfg.c **** CY_CFG_UNUSED
  69:Generated_Source\PSoC4/cyfitter_cfg.c **** static void CYCONFIGCPY(void *dest, const void *src, size_t n)
  70:Generated_Source\PSoC4/cyfitter_cfg.c **** {
  71:Generated_Source\PSoC4/cyfitter_cfg.c **** 	(void)memcpy(dest, src, n);
  72:Generated_Source\PSoC4/cyfitter_cfg.c **** }
  73:Generated_Source\PSoC4/cyfitter_cfg.c **** CY_CFG_UNUSED
  74:Generated_Source\PSoC4/cyfitter_cfg.c **** static void CYCONFIGCPYCODE(void *dest, const void *src, size_t n);
  75:Generated_Source\PSoC4/cyfitter_cfg.c **** CY_CFG_UNUSED
  76:Generated_Source\PSoC4/cyfitter_cfg.c **** static void CYCONFIGCPYCODE(void *dest, const void *src, size_t n)
  77:Generated_Source\PSoC4/cyfitter_cfg.c **** {
  78:Generated_Source\PSoC4/cyfitter_cfg.c **** 	(void)memcpy(dest, src, n);
  79:Generated_Source\PSoC4/cyfitter_cfg.c **** }
  80:Generated_Source\PSoC4/cyfitter_cfg.c **** 
  81:Generated_Source\PSoC4/cyfitter_cfg.c **** 
  82:Generated_Source\PSoC4/cyfitter_cfg.c **** 
  83:Generated_Source\PSoC4/cyfitter_cfg.c **** 
  84:Generated_Source\PSoC4/cyfitter_cfg.c **** /* Clock startup error codes                                                   */
  85:Generated_Source\PSoC4/cyfitter_cfg.c **** #define CYCLOCKSTART_NO_ERROR    0u
  86:Generated_Source\PSoC4/cyfitter_cfg.c **** #define CYCLOCKSTART_XTAL_ERROR  1u
  87:Generated_Source\PSoC4/cyfitter_cfg.c **** #define CYCLOCKSTART_32KHZ_ERROR 2u
  88:Generated_Source\PSoC4/cyfitter_cfg.c **** #define CYCLOCKSTART_PLL_ERROR   3u
  89:Generated_Source\PSoC4/cyfitter_cfg.c **** 
  90:Generated_Source\PSoC4/cyfitter_cfg.c **** 
ARM GAS  C:\Users\a83571\AppData\Local\Temp\cculJ8Gd.s 			page 3


  91:Generated_Source\PSoC4/cyfitter_cfg.c **** #ifdef CY_NEED_CYCLOCKSTARTUPERROR
  92:Generated_Source\PSoC4/cyfitter_cfg.c **** /*******************************************************************************
  93:Generated_Source\PSoC4/cyfitter_cfg.c **** * Function Name: CyClockStartupError
  94:Generated_Source\PSoC4/cyfitter_cfg.c **** ********************************************************************************
  95:Generated_Source\PSoC4/cyfitter_cfg.c **** * Summary:
  96:Generated_Source\PSoC4/cyfitter_cfg.c **** *  If an error is encountered during clock configuration (crystal startup error,
  97:Generated_Source\PSoC4/cyfitter_cfg.c **** *  PLL lock error, etc.), the system will end up here.  Unless reimplemented by
  98:Generated_Source\PSoC4/cyfitter_cfg.c **** *  the customer, this function will stop in an infinite loop.
  99:Generated_Source\PSoC4/cyfitter_cfg.c **** *
 100:Generated_Source\PSoC4/cyfitter_cfg.c **** * Parameters:
 101:Generated_Source\PSoC4/cyfitter_cfg.c **** *   void
 102:Generated_Source\PSoC4/cyfitter_cfg.c **** *
 103:Generated_Source\PSoC4/cyfitter_cfg.c **** * Return:
 104:Generated_Source\PSoC4/cyfitter_cfg.c **** *   void
 105:Generated_Source\PSoC4/cyfitter_cfg.c **** *
 106:Generated_Source\PSoC4/cyfitter_cfg.c **** *******************************************************************************/
 107:Generated_Source\PSoC4/cyfitter_cfg.c **** CY_CFG_UNUSED
 108:Generated_Source\PSoC4/cyfitter_cfg.c **** static void CyClockStartupError(uint8 errorCode);
 109:Generated_Source\PSoC4/cyfitter_cfg.c **** CY_CFG_UNUSED
 110:Generated_Source\PSoC4/cyfitter_cfg.c **** static void CyClockStartupError(uint8 errorCode)
 111:Generated_Source\PSoC4/cyfitter_cfg.c **** {
 112:Generated_Source\PSoC4/cyfitter_cfg.c ****     /* To remove the compiler warning if errorCode not used.                */
 113:Generated_Source\PSoC4/cyfitter_cfg.c ****     errorCode = errorCode;
 114:Generated_Source\PSoC4/cyfitter_cfg.c **** 
 115:Generated_Source\PSoC4/cyfitter_cfg.c ****     /* If we have a clock startup error (bad MHz crystal, PLL lock, etc.),  */
 116:Generated_Source\PSoC4/cyfitter_cfg.c ****     /* we will end up here to allow the customer to implement something to  */
 117:Generated_Source\PSoC4/cyfitter_cfg.c ****     /* deal with the clock condition.                                       */
 118:Generated_Source\PSoC4/cyfitter_cfg.c **** 
 119:Generated_Source\PSoC4/cyfitter_cfg.c **** #ifdef CY_CFG_CLOCK_STARTUP_ERROR_CALLBACK
 120:Generated_Source\PSoC4/cyfitter_cfg.c **** 	CY_CFG_Clock_Startup_ErrorCallback();
 121:Generated_Source\PSoC4/cyfitter_cfg.c **** #else
 122:Generated_Source\PSoC4/cyfitter_cfg.c **** 	/*  If not using CY_CFG_CLOCK_STARTUP_ERROR_CALLBACK, place your clock startup code here. */
 123:Generated_Source\PSoC4/cyfitter_cfg.c ****     /* `#START CyClockStartupError` */
 124:Generated_Source\PSoC4/cyfitter_cfg.c **** 
 125:Generated_Source\PSoC4/cyfitter_cfg.c **** 
 126:Generated_Source\PSoC4/cyfitter_cfg.c **** 
 127:Generated_Source\PSoC4/cyfitter_cfg.c ****     /* `#END` */
 128:Generated_Source\PSoC4/cyfitter_cfg.c **** 
 129:Generated_Source\PSoC4/cyfitter_cfg.c ****     /* If nothing else, stop here since the clocks have not started         */
 130:Generated_Source\PSoC4/cyfitter_cfg.c ****     /* correctly.                                                           */
 131:Generated_Source\PSoC4/cyfitter_cfg.c ****     while(1) {}
 132:Generated_Source\PSoC4/cyfitter_cfg.c **** #endif /* CY_CFG_CLOCK_STARTUP_ERROR_CALLBACK */ 
 133:Generated_Source\PSoC4/cyfitter_cfg.c **** }
 134:Generated_Source\PSoC4/cyfitter_cfg.c **** #endif
 135:Generated_Source\PSoC4/cyfitter_cfg.c **** 
 136:Generated_Source\PSoC4/cyfitter_cfg.c **** #define CY_CFG_BASE_ADDR_COUNT 9u
 137:Generated_Source\PSoC4/cyfitter_cfg.c **** CYPACKED typedef struct
 138:Generated_Source\PSoC4/cyfitter_cfg.c **** {
 139:Generated_Source\PSoC4/cyfitter_cfg.c **** 	uint8 offset;
 140:Generated_Source\PSoC4/cyfitter_cfg.c **** 	uint8 value;
 141:Generated_Source\PSoC4/cyfitter_cfg.c **** } CYPACKED_ATTR cy_cfg_addrvalue_t;
 142:Generated_Source\PSoC4/cyfitter_cfg.c **** 
 143:Generated_Source\PSoC4/cyfitter_cfg.c **** 
 144:Generated_Source\PSoC4/cyfitter_cfg.c **** 
 145:Generated_Source\PSoC4/cyfitter_cfg.c **** /*******************************************************************************
 146:Generated_Source\PSoC4/cyfitter_cfg.c **** * Function Name: cfg_write_bytes32
 147:Generated_Source\PSoC4/cyfitter_cfg.c **** ********************************************************************************
ARM GAS  C:\Users\a83571\AppData\Local\Temp\cculJ8Gd.s 			page 4


 148:Generated_Source\PSoC4/cyfitter_cfg.c **** * Summary:
 149:Generated_Source\PSoC4/cyfitter_cfg.c **** *  This function is used for setting up the chip configuration areas that
 150:Generated_Source\PSoC4/cyfitter_cfg.c **** *  contain relatively sparse data.
 151:Generated_Source\PSoC4/cyfitter_cfg.c **** *
 152:Generated_Source\PSoC4/cyfitter_cfg.c **** * Parameters:
 153:Generated_Source\PSoC4/cyfitter_cfg.c **** *   void
 154:Generated_Source\PSoC4/cyfitter_cfg.c **** *
 155:Generated_Source\PSoC4/cyfitter_cfg.c **** * Return:
 156:Generated_Source\PSoC4/cyfitter_cfg.c **** *   void
 157:Generated_Source\PSoC4/cyfitter_cfg.c **** *
 158:Generated_Source\PSoC4/cyfitter_cfg.c **** *******************************************************************************/
 159:Generated_Source\PSoC4/cyfitter_cfg.c **** static void cfg_write_bytes32(const uint32 addr_table[], const cy_cfg_addrvalue_t data_table[]);
 160:Generated_Source\PSoC4/cyfitter_cfg.c **** static void cfg_write_bytes32(const uint32 addr_table[], const cy_cfg_addrvalue_t data_table[])
 161:Generated_Source\PSoC4/cyfitter_cfg.c **** {
  25              		.loc 1 161 0
  26              		.cfi_startproc
  27              	.LVL0:
  28 0000 F0B5     		push	{r4, r5, r6, r7, lr}
  29              		.cfi_def_cfa_offset 20
  30              		.cfi_offset 4, -20
  31              		.cfi_offset 5, -16
  32              		.cfi_offset 6, -12
  33              		.cfi_offset 7, -8
  34              		.cfi_offset 14, -4
  35              	.LVL1:
 162:Generated_Source\PSoC4/cyfitter_cfg.c **** 	/* For 32-bit little-endian architectures */
 163:Generated_Source\PSoC4/cyfitter_cfg.c **** 	uint32 i, j = 0u;
  36              		.loc 1 163 0
  37 0002 0025     		mov	r5, #0
 164:Generated_Source\PSoC4/cyfitter_cfg.c **** 	for (i = 0u; i < CY_CFG_BASE_ADDR_COUNT; i++)
  38              		.loc 1 164 0
  39 0004 0027     		mov	r7, #0
  40 0006 11E0     		b	.L2
  41              	.LVL2:
  42              	.L5:
  43              	.LBB2:
 165:Generated_Source\PSoC4/cyfitter_cfg.c **** 	{
 166:Generated_Source\PSoC4/cyfitter_cfg.c **** 		uint32 baseAddr = addr_table[i];
  44              		.loc 1 166 0
  45 0008 BB00     		lsl	r3, r7, #2
  46 000a C658     		ldr	r6, [r0, r3]
  47              	.LVL3:
 167:Generated_Source\PSoC4/cyfitter_cfg.c **** 		uint8 count = (uint8)baseAddr;
  48              		.loc 1 167 0
  49 000c F3B2     		uxtb	r3, r6
  50              	.LVL4:
 168:Generated_Source\PSoC4/cyfitter_cfg.c **** 		baseAddr &= 0xFFFFFF00u;
  51              		.loc 1 168 0
  52 000e FF22     		mov	r2, #255
  53 0010 9643     		bic	r6, r2
  54              	.LVL5:
 169:Generated_Source\PSoC4/cyfitter_cfg.c **** 		while (count != 0u)
  55              		.loc 1 169 0
  56 0012 08E0     		b	.L3
  57              	.L4:
 170:Generated_Source\PSoC4/cyfitter_cfg.c **** 		{
 171:Generated_Source\PSoC4/cyfitter_cfg.c **** 			CY_SET_XTND_REG8((void CYFAR *)(baseAddr + data_table[j].offset), data_table[j].value);
ARM GAS  C:\Users\a83571\AppData\Local\Temp\cculJ8Gd.s 			page 5


  58              		.loc 1 171 0
  59 0014 6A00     		lsl	r2, r5, #1
  60 0016 8A18     		add	r2, r1, r2
  61 0018 1478     		ldrb	r4, [r2]
  62 001a A419     		add	r4, r4, r6
  63 001c 5278     		ldrb	r2, [r2, #1]
  64 001e 2270     		strb	r2, [r4]
 172:Generated_Source\PSoC4/cyfitter_cfg.c **** 			j++;
  65              		.loc 1 172 0
  66 0020 0135     		add	r5, r5, #1
  67              	.LVL6:
 173:Generated_Source\PSoC4/cyfitter_cfg.c **** 			count--;
  68              		.loc 1 173 0
  69 0022 013B     		sub	r3, r3, #1
  70              	.LVL7:
  71 0024 DBB2     		uxtb	r3, r3
  72              	.LVL8:
  73              	.L3:
 169:Generated_Source\PSoC4/cyfitter_cfg.c **** 		{
  74              		.loc 1 169 0
  75 0026 002B     		cmp	r3, #0
  76 0028 F4D1     		bne	.L4
  77              	.LBE2:
 164:Generated_Source\PSoC4/cyfitter_cfg.c **** 	{
  78              		.loc 1 164 0 discriminator 2
  79 002a 0137     		add	r7, r7, #1
  80              	.LVL9:
  81              	.L2:
 164:Generated_Source\PSoC4/cyfitter_cfg.c **** 	{
  82              		.loc 1 164 0 is_stmt 0 discriminator 1
  83 002c 082F     		cmp	r7, #8
  84 002e EBD9     		bls	.L5
 174:Generated_Source\PSoC4/cyfitter_cfg.c **** 		}
 175:Generated_Source\PSoC4/cyfitter_cfg.c **** 	}
 176:Generated_Source\PSoC4/cyfitter_cfg.c **** }
  85              		.loc 1 176 0 is_stmt 1
  86              		@ sp needed
  87              	.LVL10:
  88              	.LVL11:
  89 0030 F0BD     		pop	{r4, r5, r6, r7, pc}
  90              		.cfi_endproc
  91              	.LFE5:
  92              		.size	cfg_write_bytes32, .-cfg_write_bytes32
  93 0032 C046     		.section	.text.CYMEMZERO,"ax",%progbits
  94              		.align	2
  95              		.code	16
  96              		.thumb_func
  97              		.type	CYMEMZERO, %function
  98              	CYMEMZERO:
  99              	.LFB2:
  63:Generated_Source\PSoC4/cyfitter_cfg.c **** 	(void)memset(s, 0, n);
 100              		.loc 1 63 0
 101              		.cfi_startproc
 102              	.LVL12:
 103 0000 08B5     		push	{r3, lr}
 104              		.cfi_def_cfa_offset 8
 105              		.cfi_offset 3, -8
ARM GAS  C:\Users\a83571\AppData\Local\Temp\cculJ8Gd.s 			page 6


 106              		.cfi_offset 14, -4
 107 0002 0A1C     		mov	r2, r1
  64:Generated_Source\PSoC4/cyfitter_cfg.c **** }
 108              		.loc 1 64 0
 109 0004 0021     		mov	r1, #0
 110              	.LVL13:
 111 0006 FFF7FEFF 		bl	memset
 112              	.LVL14:
  65:Generated_Source\PSoC4/cyfitter_cfg.c **** CY_CFG_UNUSED
 113              		.loc 1 65 0
 114              		@ sp needed
 115 000a 08BD     		pop	{r3, pc}
 116              		.cfi_endproc
 117              	.LFE2:
 118              		.size	CYMEMZERO, .-CYMEMZERO
 119              		.section	.psocinit,"ax",%progbits
 120              		.align	2
 121              		.code	16
 122              		.thumb_func
 123              		.type	ClockSetup, %function
 124              	ClockSetup:
 125              	.LFB6:
 177:Generated_Source\PSoC4/cyfitter_cfg.c **** 
 178:Generated_Source\PSoC4/cyfitter_cfg.c **** 
 179:Generated_Source\PSoC4/cyfitter_cfg.c **** /*******************************************************************************
 180:Generated_Source\PSoC4/cyfitter_cfg.c **** * Function Name: ClockSetup
 181:Generated_Source\PSoC4/cyfitter_cfg.c **** ********************************************************************************
 182:Generated_Source\PSoC4/cyfitter_cfg.c **** *
 183:Generated_Source\PSoC4/cyfitter_cfg.c **** * Summary:
 184:Generated_Source\PSoC4/cyfitter_cfg.c **** *   Performs the initialization of all of the clocks in the device based on the
 185:Generated_Source\PSoC4/cyfitter_cfg.c **** *   settings in the Clock tab of the DWR.  This includes enabling the requested
 186:Generated_Source\PSoC4/cyfitter_cfg.c **** *   clocks and setting the necessary dividers to produce the desired frequency. 
 187:Generated_Source\PSoC4/cyfitter_cfg.c **** *
 188:Generated_Source\PSoC4/cyfitter_cfg.c **** * Parameters:
 189:Generated_Source\PSoC4/cyfitter_cfg.c **** *   void
 190:Generated_Source\PSoC4/cyfitter_cfg.c **** *
 191:Generated_Source\PSoC4/cyfitter_cfg.c **** * Return:
 192:Generated_Source\PSoC4/cyfitter_cfg.c **** *   void
 193:Generated_Source\PSoC4/cyfitter_cfg.c **** *
 194:Generated_Source\PSoC4/cyfitter_cfg.c **** *******************************************************************************/
 195:Generated_Source\PSoC4/cyfitter_cfg.c **** static void ClockSetup(void);
 196:Generated_Source\PSoC4/cyfitter_cfg.c **** CY_CFG_SECTION
 197:Generated_Source\PSoC4/cyfitter_cfg.c **** static void ClockSetup(void)
 198:Generated_Source\PSoC4/cyfitter_cfg.c **** {
 126              		.loc 1 198 0
 127              		.cfi_startproc
 128 0000 38B5     		push	{r3, r4, r5, lr}
 129              		.cfi_def_cfa_offset 16
 130              		.cfi_offset 3, -16
 131              		.cfi_offset 4, -12
 132              		.cfi_offset 5, -8
 133              		.cfi_offset 14, -4
 199:Generated_Source\PSoC4/cyfitter_cfg.c **** 
 200:Generated_Source\PSoC4/cyfitter_cfg.c **** 	/* Set Flash Cycles based on max possible frequency in case a glitch occurs during ClockSetup(). *
 201:Generated_Source\PSoC4/cyfitter_cfg.c **** 	CY_SET_REG32((void CYXDATA *)(CYREG_CPUSS_FLASH_CTL), (0x0012u));
 134              		.loc 1 201 0
 135 0002 1222     		mov	r2, #18
ARM GAS  C:\Users\a83571\AppData\Local\Temp\cculJ8Gd.s 			page 7


 136 0004 2A4B     		ldr	r3, .L8
 137 0006 1A60     		str	r2, [r3]
 202:Generated_Source\PSoC4/cyfitter_cfg.c **** 
 203:Generated_Source\PSoC4/cyfitter_cfg.c **** 	/* Start the WCO */
 204:Generated_Source\PSoC4/cyfitter_cfg.c **** 	CySysClkWcoStart();
 138              		.loc 1 204 0
 139 0008 FFF7FEFF 		bl	CySysClkWcoStart
 140              	.LVL15:
 205:Generated_Source\PSoC4/cyfitter_cfg.c **** 	CyDelayCycles(12000000u); /* WCO may take up to 500ms to start */
 141              		.loc 1 205 0
 142 000c 2948     		ldr	r0, .L8+4
 143 000e FFF7FEFF 		bl	CyDelayCycles
 144              	.LVL16:
 206:Generated_Source\PSoC4/cyfitter_cfg.c **** 	(void)CySysClkWcoSetPowerMode(CY_SYS_CLK_WCO_LPM);    /* Switch to the low power mode */
 145              		.loc 1 206 0
 146 0012 0120     		mov	r0, #1
 147 0014 FFF7FEFF 		bl	CySysClkWcoSetPowerMode
 148              	.LVL17:
 207:Generated_Source\PSoC4/cyfitter_cfg.c **** 
 208:Generated_Source\PSoC4/cyfitter_cfg.c **** 	/* Setup and trim IMO based on desired frequency. */
 209:Generated_Source\PSoC4/cyfitter_cfg.c **** 	CySysClkWriteImoFreq(48u);
 149              		.loc 1 209 0
 150 0018 3020     		mov	r0, #48
 151 001a FFF7FEFF 		bl	CySysClkWriteImoFreq
 152              	.LVL18:
 210:Generated_Source\PSoC4/cyfitter_cfg.c **** 	/* CYDEV_CLK_ILO_CONFIG Starting address: CYDEV_CLK_ILO_CONFIG */
 211:Generated_Source\PSoC4/cyfitter_cfg.c **** 	CY_SET_XTND_REG32((void CYFAR *)(CYREG_CLK_ILO_CONFIG), 0x80000006u);
 153              		.loc 1 211 0
 154 001e 264A     		ldr	r2, .L8+8
 155 0020 264B     		ldr	r3, .L8+12
 156 0022 1A60     		str	r2, [r3]
 212:Generated_Source\PSoC4/cyfitter_cfg.c **** 
 213:Generated_Source\PSoC4/cyfitter_cfg.c **** 	/* CYDEV_WDT_CONFIG Starting address: CYDEV_WDT_CONFIG */
 214:Generated_Source\PSoC4/cyfitter_cfg.c **** 	CY_SET_XTND_REG32((void CYFAR *)(CYREG_WDT_CONFIG), 0x40000000u);
 157              		.loc 1 214 0
 158 0024 264C     		ldr	r4, .L8+16
 159 0026 8025     		mov	r5, #128
 160 0028 ED05     		lsl	r5, r5, #23
 161 002a 2560     		str	r5, [r4]
 215:Generated_Source\PSoC4/cyfitter_cfg.c **** 
 216:Generated_Source\PSoC4/cyfitter_cfg.c **** 
 217:Generated_Source\PSoC4/cyfitter_cfg.c **** 	/* Enable fast start mode for XO */
 218:Generated_Source\PSoC4/cyfitter_cfg.c **** 	CY_SET_REG32((void*)CYREG_BLE_BLERD_BB_XO, CY_GET_REG32((void*)CYREG_BLE_BLERD_BB_XO) | (uint32)0x
 162              		.loc 1 218 0
 163 002c 254A     		ldr	r2, .L8+20
 164 002e 1168     		ldr	r1, [r2]
 165 0030 0223     		mov	r3, #2
 166 0032 0B43     		orr	r3, r1
 167 0034 1360     		str	r3, [r2]
 219:Generated_Source\PSoC4/cyfitter_cfg.c **** 	CY_SET_XTND_REG32((void CYFAR *)(CYREG_BLE_BLERD_BB_XO_CAPTRIM), 0x00003E2Du);
 168              		.loc 1 219 0
 169 0036 244A     		ldr	r2, .L8+24
 170 0038 244B     		ldr	r3, .L8+28
 171 003a 1A60     		str	r2, [r3]
 220:Generated_Source\PSoC4/cyfitter_cfg.c **** 	/*Set XTAL(ECO) divider*/
 221:Generated_Source\PSoC4/cyfitter_cfg.c **** 	CY_SET_XTND_REG32((void CYFAR *)(CYREG_BLE_BLESS_XTAL_CLK_DIV_CONFIG), 0x00000000u);
 172              		.loc 1 221 0
ARM GAS  C:\Users\a83571\AppData\Local\Temp\cculJ8Gd.s 			page 8


 173 003c 0022     		mov	r2, #0
 174 003e 244B     		ldr	r3, .L8+32
 175 0040 1A60     		str	r2, [r3]
 222:Generated_Source\PSoC4/cyfitter_cfg.c **** 	/* Disable Crystal Stable Interrupt before enabling ECO */
 223:Generated_Source\PSoC4/cyfitter_cfg.c **** 	CY_SET_REG32((void*)CYREG_BLE_BLESS_LL_DSM_CTRL, CY_GET_REG32((void*)CYREG_BLE_BLESS_LL_DSM_CTRL) 
 176              		.loc 1 223 0
 177 0042 244A     		ldr	r2, .L8+36
 178 0044 1368     		ldr	r3, [r2]
 179 0046 0821     		mov	r1, #8
 180 0048 8B43     		bic	r3, r1
 181 004a 1360     		str	r3, [r2]
 224:Generated_Source\PSoC4/cyfitter_cfg.c **** 	/* Start the ECO and do not check status since it is not needed for HFCLK */
 225:Generated_Source\PSoC4/cyfitter_cfg.c **** 	(void)CySysClkEcoStart(2000u);
 182              		.loc 1 225 0
 183 004c FA20     		mov	r0, #250
 184 004e C000     		lsl	r0, r0, #3
 185 0050 FFF7FEFF 		bl	CySysClkEcoStart
 186              	.LVL19:
 226:Generated_Source\PSoC4/cyfitter_cfg.c **** 	CyDelayUs(1500u); /* Wait to stabalize */
 187              		.loc 1 226 0
 188 0054 2048     		ldr	r0, .L8+40
 189 0056 FFF7FEFF 		bl	CyDelayUs
 190              	.LVL20:
 227:Generated_Source\PSoC4/cyfitter_cfg.c **** 
 228:Generated_Source\PSoC4/cyfitter_cfg.c **** 	/* Setup phase aligned clocks */
 229:Generated_Source\PSoC4/cyfitter_cfg.c **** 	CY_SET_REG32((void *)CYREG_PERI_DIV_16_CTL2, 0x00000300u);
 191              		.loc 1 229 0
 192 005a C022     		mov	r2, #192
 193 005c 9200     		lsl	r2, r2, #2
 194 005e 1F4B     		ldr	r3, .L8+44
 195 0060 1A60     		str	r2, [r3]
 230:Generated_Source\PSoC4/cyfitter_cfg.c **** 	CY_SET_REG32((void *)CYREG_PERI_DIV_CMD, 0x8000FF42u);
 196              		.loc 1 230 0
 197 0062 1F4B     		ldr	r3, .L8+48
 198 0064 1F4A     		ldr	r2, .L8+52
 199 0066 1A60     		str	r2, [r3]
 231:Generated_Source\PSoC4/cyfitter_cfg.c **** 	CY_SET_REG32((void *)CYREG_PERI_DIV_16_CTL0, 0x0000FE00u);
 200              		.loc 1 231 0
 201 0068 FE22     		mov	r2, #254
 202 006a 1202     		lsl	r2, r2, #8
 203 006c 1E49     		ldr	r1, .L8+56
 204 006e 0A60     		str	r2, [r1]
 232:Generated_Source\PSoC4/cyfitter_cfg.c **** 	CY_SET_REG32((void *)CYREG_PERI_DIV_CMD, 0x8000FF40u);
 205              		.loc 1 232 0
 206 0070 1E49     		ldr	r1, .L8+60
 207 0072 1960     		str	r1, [r3]
 233:Generated_Source\PSoC4/cyfitter_cfg.c **** 	CY_SET_REG32((void *)CYREG_PERI_DIV_16_CTL1, 0x0000FE00u);
 208              		.loc 1 233 0
 209 0074 1E49     		ldr	r1, .L8+64
 210 0076 0A60     		str	r2, [r1]
 234:Generated_Source\PSoC4/cyfitter_cfg.c **** 	CY_SET_REG32((void *)CYREG_PERI_DIV_CMD, 0x8000FF41u);
 211              		.loc 1 234 0
 212 0078 1E4A     		ldr	r2, .L8+68
 213 007a 1A60     		str	r2, [r3]
 235:Generated_Source\PSoC4/cyfitter_cfg.c **** 
 236:Generated_Source\PSoC4/cyfitter_cfg.c **** 	/* CYDEV_CLK_IMO_CONFIG Starting address: CYDEV_CLK_IMO_CONFIG */
 237:Generated_Source\PSoC4/cyfitter_cfg.c **** 	CY_SET_XTND_REG32((void CYFAR *)(CYREG_CLK_IMO_CONFIG), 0x80000000u);
ARM GAS  C:\Users\a83571\AppData\Local\Temp\cculJ8Gd.s 			page 9


 214              		.loc 1 237 0
 215 007c 8022     		mov	r2, #128
 216 007e 1206     		lsl	r2, r2, #24
 217 0080 1D4B     		ldr	r3, .L8+72
 218 0082 1A60     		str	r2, [r3]
 238:Generated_Source\PSoC4/cyfitter_cfg.c **** 
 239:Generated_Source\PSoC4/cyfitter_cfg.c **** 	/* CYDEV_CLK_SELECT Starting address: CYDEV_CLK_SELECT */
 240:Generated_Source\PSoC4/cyfitter_cfg.c **** 	CY_SET_XTND_REG32((void CYFAR *)(CYREG_CLK_SELECT), 0x00040000u);
 219              		.loc 1 240 0
 220 0084 8022     		mov	r2, #128
 221 0086 D202     		lsl	r2, r2, #11
 222 0088 1C4B     		ldr	r3, .L8+76
 223 008a 1A60     		str	r2, [r3]
 241:Generated_Source\PSoC4/cyfitter_cfg.c **** 
 242:Generated_Source\PSoC4/cyfitter_cfg.c **** 	/* CYDEV_PERI_PCLK_CTL11 Starting address: CYDEV_PERI_PCLK_CTL11 */
 243:Generated_Source\PSoC4/cyfitter_cfg.c **** 	CY_SET_XTND_REG32((void CYFAR *)(CYREG_PERI_PCLK_CTL11), 0x00000042u);
 224              		.loc 1 243 0
 225 008c 4222     		mov	r2, #66
 226 008e 1C4B     		ldr	r3, .L8+80
 227 0090 1A60     		str	r2, [r3]
 244:Generated_Source\PSoC4/cyfitter_cfg.c **** 
 245:Generated_Source\PSoC4/cyfitter_cfg.c **** 	/* CYDEV_PERI_PCLK_CTL5 Starting address: CYDEV_PERI_PCLK_CTL5 */
 246:Generated_Source\PSoC4/cyfitter_cfg.c **** 	CY_SET_XTND_REG32((void CYFAR *)(CYREG_PERI_PCLK_CTL5), 0x00000040u);
 228              		.loc 1 246 0
 229 0092 023A     		sub	r2, r2, #2
 230 0094 1B4B     		ldr	r3, .L8+84
 231 0096 1A60     		str	r2, [r3]
 247:Generated_Source\PSoC4/cyfitter_cfg.c **** 
 248:Generated_Source\PSoC4/cyfitter_cfg.c **** 	/* CYDEV_PERI_PCLK_CTL4 Starting address: CYDEV_PERI_PCLK_CTL4 */
 249:Generated_Source\PSoC4/cyfitter_cfg.c **** 	CY_SET_XTND_REG32((void CYFAR *)(CYREG_PERI_PCLK_CTL4), 0x00000041u);
 232              		.loc 1 249 0
 233 0098 0132     		add	r2, r2, #1
 234 009a 1B4B     		ldr	r3, .L8+88
 235 009c 1A60     		str	r2, [r3]
 250:Generated_Source\PSoC4/cyfitter_cfg.c **** 
 251:Generated_Source\PSoC4/cyfitter_cfg.c **** 	(void)CyIntSetVector(8u, &CySysWdtIsr);
 236              		.loc 1 251 0
 237 009e 0820     		mov	r0, #8
 238 00a0 1A49     		ldr	r1, .L8+92
 239 00a2 FFF7FEFF 		bl	CyIntSetVector
 240              	.LVL21:
 252:Generated_Source\PSoC4/cyfitter_cfg.c **** 	CyIntEnable(8u);
 241              		.loc 1 252 0
 242 00a6 0820     		mov	r0, #8
 243 00a8 FFF7FEFF 		bl	CyIntEnable
 244              	.LVL22:
 253:Generated_Source\PSoC4/cyfitter_cfg.c **** 	CY_SET_XTND_REG32((void CYFAR *)(CYREG_WDT_CONFIG), 0x40000000u);
 245              		.loc 1 253 0
 246 00ac 2560     		str	r5, [r4]
 254:Generated_Source\PSoC4/cyfitter_cfg.c **** }
 247              		.loc 1 254 0
 248              		@ sp needed
 249 00ae 38BD     		pop	{r3, r4, r5, pc}
 250              	.L9:
 251              		.align	2
 252              	.L8:
 253 00b0 30001040 		.word	1074790448
ARM GAS  C:\Users\a83571\AppData\Local\Temp\cculJ8Gd.s 			page 10


 254 00b4 001BB700 		.word	12000000
 255 00b8 06000080 		.word	-2147483642
 256 00bc 04010B40 		.word	1074462980
 257 00c0 0C020B40 		.word	1074463244
 258 00c4 78002E40 		.word	1076756600
 259 00c8 2D3E0000 		.word	15917
 260 00cc 7C002E40 		.word	1076756604
 261 00d0 64F02E40 		.word	1076818020
 262 00d4 6CF02E40 		.word	1076818028
 263 00d8 DC050000 		.word	1500
 264 00dc 08030140 		.word	1073808136
 265 00e0 00000140 		.word	1073807360
 266 00e4 42FF0080 		.word	-2147418302
 267 00e8 00030140 		.word	1073808128
 268 00ec 40FF0080 		.word	-2147418304
 269 00f0 04030140 		.word	1073808132
 270 00f4 41FF0080 		.word	-2147418303
 271 00f8 08010B40 		.word	1074462984
 272 00fc 00010B40 		.word	1074462976
 273 0100 2C010140 		.word	1073807660
 274 0104 14010140 		.word	1073807636
 275 0108 10010140 		.word	1073807632
 276 010c 00000000 		.word	CySysWdtIsr
 277              		.cfi_endproc
 278              	.LFE6:
 279              		.size	ClockSetup, .-ClockSetup
 280              		.section	.text.SetAnalogRoutingPumps,"ax",%progbits
 281              		.align	2
 282              		.global	SetAnalogRoutingPumps
 283              		.code	16
 284              		.thumb_func
 285              		.type	SetAnalogRoutingPumps, %function
 286              	SetAnalogRoutingPumps:
 287              	.LFB8:
 255:Generated_Source\PSoC4/cyfitter_cfg.c **** 
 256:Generated_Source\PSoC4/cyfitter_cfg.c **** 
 257:Generated_Source\PSoC4/cyfitter_cfg.c **** /* Analog API Functions */
 258:Generated_Source\PSoC4/cyfitter_cfg.c **** 
 259:Generated_Source\PSoC4/cyfitter_cfg.c **** 
 260:Generated_Source\PSoC4/cyfitter_cfg.c **** /*******************************************************************************
 261:Generated_Source\PSoC4/cyfitter_cfg.c **** * Function Name: AnalogSetDefault
 262:Generated_Source\PSoC4/cyfitter_cfg.c **** ********************************************************************************
 263:Generated_Source\PSoC4/cyfitter_cfg.c **** *
 264:Generated_Source\PSoC4/cyfitter_cfg.c **** * Summary:
 265:Generated_Source\PSoC4/cyfitter_cfg.c **** *  Sets up the analog portions of the chip to default values based on chip
 266:Generated_Source\PSoC4/cyfitter_cfg.c **** *  configuration options from the project.
 267:Generated_Source\PSoC4/cyfitter_cfg.c **** *
 268:Generated_Source\PSoC4/cyfitter_cfg.c **** * Parameters:
 269:Generated_Source\PSoC4/cyfitter_cfg.c **** *  void
 270:Generated_Source\PSoC4/cyfitter_cfg.c **** *
 271:Generated_Source\PSoC4/cyfitter_cfg.c **** * Return:
 272:Generated_Source\PSoC4/cyfitter_cfg.c **** *  void
 273:Generated_Source\PSoC4/cyfitter_cfg.c **** *
 274:Generated_Source\PSoC4/cyfitter_cfg.c **** *******************************************************************************/
 275:Generated_Source\PSoC4/cyfitter_cfg.c **** static void AnalogSetDefault(void);
 276:Generated_Source\PSoC4/cyfitter_cfg.c **** static void AnalogSetDefault(void)
 277:Generated_Source\PSoC4/cyfitter_cfg.c **** {
ARM GAS  C:\Users\a83571\AppData\Local\Temp\cculJ8Gd.s 			page 11


 278:Generated_Source\PSoC4/cyfitter_cfg.c **** 	CY_SET_XTND_REG32((void CYFAR *)CYREG_CTBM0_DFT_CTRL, 0x00000003u);
 279:Generated_Source\PSoC4/cyfitter_cfg.c **** 	CY_SET_XTND_REG32((void CYFAR *)CYREG_CTBM1_DFT_CTRL, 0x00000003u);
 280:Generated_Source\PSoC4/cyfitter_cfg.c **** 	CY_SET_XTND_REG32((void CYFAR *)CYREG_PASS_DSAB_DSAB_CTRL, 0x00000000u);
 281:Generated_Source\PSoC4/cyfitter_cfg.c **** 	SetAnalogRoutingPumps(1);
 282:Generated_Source\PSoC4/cyfitter_cfg.c **** }
 283:Generated_Source\PSoC4/cyfitter_cfg.c **** 
 284:Generated_Source\PSoC4/cyfitter_cfg.c **** 
 285:Generated_Source\PSoC4/cyfitter_cfg.c **** /*******************************************************************************
 286:Generated_Source\PSoC4/cyfitter_cfg.c **** * Function Name: SetAnalogRoutingPumps
 287:Generated_Source\PSoC4/cyfitter_cfg.c **** ********************************************************************************
 288:Generated_Source\PSoC4/cyfitter_cfg.c **** *
 289:Generated_Source\PSoC4/cyfitter_cfg.c **** * Summary:
 290:Generated_Source\PSoC4/cyfitter_cfg.c **** * Enables or disables the analog pumps feeding analog routing switches.
 291:Generated_Source\PSoC4/cyfitter_cfg.c **** * Intended to be called at startup, based on the Vdda system configuration;
 292:Generated_Source\PSoC4/cyfitter_cfg.c **** * may be called during operation when the user informs us that the Vdda voltage crossed the pump th
 293:Generated_Source\PSoC4/cyfitter_cfg.c **** *
 294:Generated_Source\PSoC4/cyfitter_cfg.c **** * Parameters:
 295:Generated_Source\PSoC4/cyfitter_cfg.c **** *  enabled - 1 to enable the pumps, 0 to disable the pumps
 296:Generated_Source\PSoC4/cyfitter_cfg.c **** *
 297:Generated_Source\PSoC4/cyfitter_cfg.c **** * Return:
 298:Generated_Source\PSoC4/cyfitter_cfg.c **** *  void
 299:Generated_Source\PSoC4/cyfitter_cfg.c **** *
 300:Generated_Source\PSoC4/cyfitter_cfg.c **** *******************************************************************************/
 301:Generated_Source\PSoC4/cyfitter_cfg.c **** void SetAnalogRoutingPumps(uint8 enabled)
 302:Generated_Source\PSoC4/cyfitter_cfg.c **** {
 288              		.loc 1 302 0
 289              		.cfi_startproc
 290              	.LVL23:
 303:Generated_Source\PSoC4/cyfitter_cfg.c **** 	uint32 regValue = CY_GET_XTND_REG32((void *)(CYREG_SAR_PUMP_CTRL));
 291              		.loc 1 303 0
 292 0000 0C4B     		ldr	r3, .L15
 293 0002 1B68     		ldr	r3, [r3]
 294              	.LVL24:
 304:Generated_Source\PSoC4/cyfitter_cfg.c **** 	if (enabled != 0u)
 295              		.loc 1 304 0
 296 0004 0028     		cmp	r0, #0
 297 0006 03D0     		beq	.L11
 305:Generated_Source\PSoC4/cyfitter_cfg.c **** 	{
 306:Generated_Source\PSoC4/cyfitter_cfg.c **** 		regValue |= 0x80000000u;
 298              		.loc 1 306 0
 299 0008 8022     		mov	r2, #128
 300 000a 1206     		lsl	r2, r2, #24
 301 000c 1343     		orr	r3, r2
 302              	.LVL25:
 303 000e 01E0     		b	.L12
 304              	.L11:
 307:Generated_Source\PSoC4/cyfitter_cfg.c **** 	}
 308:Generated_Source\PSoC4/cyfitter_cfg.c **** 	else
 309:Generated_Source\PSoC4/cyfitter_cfg.c **** 	{
 310:Generated_Source\PSoC4/cyfitter_cfg.c **** 		regValue &= ~0x80000000u;
 305              		.loc 1 310 0
 306 0010 5B00     		lsl	r3, r3, #1
 307              	.LVL26:
 308 0012 5B08     		lsr	r3, r3, #1
 309              	.LVL27:
 310              	.L12:
 311:Generated_Source\PSoC4/cyfitter_cfg.c **** 	}
ARM GAS  C:\Users\a83571\AppData\Local\Temp\cculJ8Gd.s 			page 12


 312:Generated_Source\PSoC4/cyfitter_cfg.c **** 	CY_SET_XTND_REG32((void *)(CYREG_SAR_PUMP_CTRL), regValue);
 311              		.loc 1 312 0
 312 0014 074A     		ldr	r2, .L15
 313 0016 1360     		str	r3, [r2]
 313:Generated_Source\PSoC4/cyfitter_cfg.c **** 	regValue = CY_GET_XTND_REG32((void *)(CYREG_CLK_IMO_CONFIG));
 314              		.loc 1 313 0
 315 0018 074B     		ldr	r3, .L15+4
 316              	.LVL28:
 317 001a 1B68     		ldr	r3, [r3]
 318              	.LVL29:
 314:Generated_Source\PSoC4/cyfitter_cfg.c **** 	if (enabled != 0u)
 319              		.loc 1 314 0
 320 001c 0028     		cmp	r0, #0
 321 001e 03D0     		beq	.L13
 315:Generated_Source\PSoC4/cyfitter_cfg.c **** 	{
 316:Generated_Source\PSoC4/cyfitter_cfg.c **** 		regValue |= 0x02000000u;
 322              		.loc 1 316 0
 323 0020 8022     		mov	r2, #128
 324 0022 9204     		lsl	r2, r2, #18
 325 0024 1343     		orr	r3, r2
 326              	.LVL30:
 327 0026 01E0     		b	.L14
 328              	.L13:
 317:Generated_Source\PSoC4/cyfitter_cfg.c **** 	}
 318:Generated_Source\PSoC4/cyfitter_cfg.c **** 	else
 319:Generated_Source\PSoC4/cyfitter_cfg.c **** 	{
 320:Generated_Source\PSoC4/cyfitter_cfg.c **** 		regValue &= ~0x02000000u;
 329              		.loc 1 320 0
 330 0028 044A     		ldr	r2, .L15+8
 331 002a 1340     		and	r3, r2
 332              	.LVL31:
 333              	.L14:
 321:Generated_Source\PSoC4/cyfitter_cfg.c **** 	}
 322:Generated_Source\PSoC4/cyfitter_cfg.c **** 	CY_SET_XTND_REG32((void *)(CYREG_CLK_IMO_CONFIG), regValue);
 334              		.loc 1 322 0
 335 002c 024A     		ldr	r2, .L15+4
 336 002e 1360     		str	r3, [r2]
 323:Generated_Source\PSoC4/cyfitter_cfg.c **** }
 337              		.loc 1 323 0
 338              		@ sp needed
 339 0030 7047     		bx	lr
 340              	.L16:
 341 0032 C046     		.align	2
 342              	.L15:
 343 0034 80033A40 		.word	1077543808
 344 0038 08010B40 		.word	1074462984
 345 003c FFFFFFFD 		.word	-33554433
 346              		.cfi_endproc
 347              	.LFE8:
 348              		.size	SetAnalogRoutingPumps, .-SetAnalogRoutingPumps
 349              		.section	.text.AnalogSetDefault,"ax",%progbits
 350              		.align	2
 351              		.code	16
 352              		.thumb_func
 353              		.type	AnalogSetDefault, %function
 354              	AnalogSetDefault:
 355              	.LFB7:
ARM GAS  C:\Users\a83571\AppData\Local\Temp\cculJ8Gd.s 			page 13


 277:Generated_Source\PSoC4/cyfitter_cfg.c **** 	CY_SET_XTND_REG32((void CYFAR *)CYREG_CTBM0_DFT_CTRL, 0x00000003u);
 356              		.loc 1 277 0
 357              		.cfi_startproc
 358 0000 08B5     		push	{r3, lr}
 359              		.cfi_def_cfa_offset 8
 360              		.cfi_offset 3, -8
 361              		.cfi_offset 14, -4
 278:Generated_Source\PSoC4/cyfitter_cfg.c **** 	CY_SET_XTND_REG32((void CYFAR *)CYREG_CTBM1_DFT_CTRL, 0x00000003u);
 362              		.loc 1 278 0
 363 0002 0323     		mov	r3, #3
 364 0004 054A     		ldr	r2, .L18
 365 0006 1360     		str	r3, [r2]
 279:Generated_Source\PSoC4/cyfitter_cfg.c **** 	CY_SET_XTND_REG32((void CYFAR *)CYREG_PASS_DSAB_DSAB_CTRL, 0x00000000u);
 366              		.loc 1 279 0
 367 0008 054A     		ldr	r2, .L18+4
 368 000a 1360     		str	r3, [r2]
 280:Generated_Source\PSoC4/cyfitter_cfg.c **** 	SetAnalogRoutingPumps(1);
 369              		.loc 1 280 0
 370 000c 0022     		mov	r2, #0
 371 000e 054B     		ldr	r3, .L18+8
 372 0010 1A60     		str	r2, [r3]
 281:Generated_Source\PSoC4/cyfitter_cfg.c **** }
 373              		.loc 1 281 0
 374 0012 0120     		mov	r0, #1
 375 0014 FFF7FEFF 		bl	SetAnalogRoutingPumps
 376              	.LVL32:
 282:Generated_Source\PSoC4/cyfitter_cfg.c **** 
 377              		.loc 1 282 0
 378              		@ sp needed
 379 0018 08BD     		pop	{r3, pc}
 380              	.L19:
 381 001a C046     		.align	2
 382              	.L18:
 383 001c 30003040 		.word	1076887600
 384 0020 30003140 		.word	1076953136
 385 0024 000E3F40 		.word	1077874176
 386              		.cfi_endproc
 387              	.LFE7:
 388              		.size	AnalogSetDefault, .-AnalogSetDefault
 389              		.section	.psocinit
 390              		.align	2
 391              		.global	cyfitter_cfg
 392              		.code	16
 393              		.thumb_func
 394              		.type	cyfitter_cfg, %function
 395              	cyfitter_cfg:
 396              	.LFB9:
 324:Generated_Source\PSoC4/cyfitter_cfg.c **** 
 325:Generated_Source\PSoC4/cyfitter_cfg.c **** #define CY_AMUX_UNUSED CYREG_CM0_ROM_DWT
 326:Generated_Source\PSoC4/cyfitter_cfg.c **** 
 327:Generated_Source\PSoC4/cyfitter_cfg.c **** 
 328:Generated_Source\PSoC4/cyfitter_cfg.c **** /*******************************************************************************
 329:Generated_Source\PSoC4/cyfitter_cfg.c **** * Function Name: cyfitter_cfg
 330:Generated_Source\PSoC4/cyfitter_cfg.c **** ********************************************************************************
 331:Generated_Source\PSoC4/cyfitter_cfg.c **** * Summary:
 332:Generated_Source\PSoC4/cyfitter_cfg.c **** *  This function is called by the start-up code for the selected device. It
 333:Generated_Source\PSoC4/cyfitter_cfg.c **** *  performs all of the necessary device configuration based on the design
ARM GAS  C:\Users\a83571\AppData\Local\Temp\cculJ8Gd.s 			page 14


 334:Generated_Source\PSoC4/cyfitter_cfg.c **** *  settings.  This includes settings from the Design Wide Resources (DWR) such
 335:Generated_Source\PSoC4/cyfitter_cfg.c **** *  as Clocks and Pins as well as any component configuration that is necessary.
 336:Generated_Source\PSoC4/cyfitter_cfg.c **** *
 337:Generated_Source\PSoC4/cyfitter_cfg.c **** * Parameters:  
 338:Generated_Source\PSoC4/cyfitter_cfg.c **** *   void
 339:Generated_Source\PSoC4/cyfitter_cfg.c **** *
 340:Generated_Source\PSoC4/cyfitter_cfg.c **** * Return:
 341:Generated_Source\PSoC4/cyfitter_cfg.c **** *   void
 342:Generated_Source\PSoC4/cyfitter_cfg.c **** *
 343:Generated_Source\PSoC4/cyfitter_cfg.c **** *******************************************************************************/
 344:Generated_Source\PSoC4/cyfitter_cfg.c **** CY_CFG_SECTION
 345:Generated_Source\PSoC4/cyfitter_cfg.c **** void cyfitter_cfg(void)
 346:Generated_Source\PSoC4/cyfitter_cfg.c **** {
 397              		.loc 1 346 0
 398              		.cfi_startproc
 399 0110 10B5     		push	{r4, lr}
 400              		.cfi_def_cfa_offset 8
 401              		.cfi_offset 4, -8
 402              		.cfi_offset 14, -4
 347:Generated_Source\PSoC4/cyfitter_cfg.c **** 	/* Disable interrupts by default. Let user enable if/when they want. */
 348:Generated_Source\PSoC4/cyfitter_cfg.c **** 	CyGlobalIntDisable;
 403              		.loc 1 348 0
 404              	@ 348 "Generated_Source\PSoC4\cyfitter_cfg.c" 1
 405 0112 72B6     		CPSID   i
 406              	@ 0 "" 2
 349:Generated_Source\PSoC4/cyfitter_cfg.c **** 
 350:Generated_Source\PSoC4/cyfitter_cfg.c **** 	CY_SET_XTND_REG32((void CYFAR *)(CYREG_BLE_BLESS_LL_DSM_CTRL), 0x00000000u);
 407              		.loc 1 350 0
 408              		.code	16
 409 0114 0022     		mov	r2, #0
 410 0116 354B     		ldr	r3, .L23
 411 0118 1A60     		str	r2, [r3]
 412              	.LVL33:
 413              	.LBB3:
 351:Generated_Source\PSoC4/cyfitter_cfg.c **** 
 352:Generated_Source\PSoC4/cyfitter_cfg.c **** 	{
 353:Generated_Source\PSoC4/cyfitter_cfg.c **** 		static const uint32 CYCODE cy_cfg_addr_table[] = {
 354:Generated_Source\PSoC4/cyfitter_cfg.c **** 			0x400F0002u, /* Base address: 0x400F0000 Count: 2 */
 355:Generated_Source\PSoC4/cyfitter_cfg.c **** 			0x400F3045u, /* Base address: 0x400F3000 Count: 69 */
 356:Generated_Source\PSoC4/cyfitter_cfg.c **** 			0x400F3125u, /* Base address: 0x400F3100 Count: 37 */
 357:Generated_Source\PSoC4/cyfitter_cfg.c **** 			0x400F3244u, /* Base address: 0x400F3200 Count: 68 */
 358:Generated_Source\PSoC4/cyfitter_cfg.c **** 			0x400F3326u, /* Base address: 0x400F3300 Count: 38 */
 359:Generated_Source\PSoC4/cyfitter_cfg.c **** 			0x400F4105u, /* Base address: 0x400F4100 Count: 5 */
 360:Generated_Source\PSoC4/cyfitter_cfg.c **** 			0x400F4204u, /* Base address: 0x400F4200 Count: 4 */
 361:Generated_Source\PSoC4/cyfitter_cfg.c **** 			0x400F4307u, /* Base address: 0x400F4300 Count: 7 */
 362:Generated_Source\PSoC4/cyfitter_cfg.c **** 			0x400F6002u, /* Base address: 0x400F6000 Count: 2 */
 363:Generated_Source\PSoC4/cyfitter_cfg.c **** 		};
 364:Generated_Source\PSoC4/cyfitter_cfg.c **** 
 365:Generated_Source\PSoC4/cyfitter_cfg.c **** 		static const cy_cfg_addrvalue_t CYCODE cy_cfg_data_table[] = {
 366:Generated_Source\PSoC4/cyfitter_cfg.c **** 			{0x81u, 0x0Fu},
 367:Generated_Source\PSoC4/cyfitter_cfg.c **** 			{0x83u, 0x0Fu},
 368:Generated_Source\PSoC4/cyfitter_cfg.c **** 			{0x40u, 0x30u},
 369:Generated_Source\PSoC4/cyfitter_cfg.c **** 			{0x41u, 0x04u},
 370:Generated_Source\PSoC4/cyfitter_cfg.c **** 			{0x49u, 0xFFu},
 371:Generated_Source\PSoC4/cyfitter_cfg.c **** 			{0x4Au, 0xFFu},
 372:Generated_Source\PSoC4/cyfitter_cfg.c **** 			{0x4Bu, 0xFFu},
 373:Generated_Source\PSoC4/cyfitter_cfg.c **** 			{0x4Du, 0xA0u},
ARM GAS  C:\Users\a83571\AppData\Local\Temp\cculJ8Gd.s 			page 15


 374:Generated_Source\PSoC4/cyfitter_cfg.c **** 			{0x4Fu, 0x04u},
 375:Generated_Source\PSoC4/cyfitter_cfg.c **** 			{0x50u, 0x18u},
 376:Generated_Source\PSoC4/cyfitter_cfg.c **** 			{0x5Au, 0x04u},
 377:Generated_Source\PSoC4/cyfitter_cfg.c **** 			{0x5Fu, 0x01u},
 378:Generated_Source\PSoC4/cyfitter_cfg.c **** 			{0x60u, 0x40u},
 379:Generated_Source\PSoC4/cyfitter_cfg.c **** 			{0x62u, 0xC0u},
 380:Generated_Source\PSoC4/cyfitter_cfg.c **** 			{0x64u, 0x40u},
 381:Generated_Source\PSoC4/cyfitter_cfg.c **** 			{0x65u, 0x40u},
 382:Generated_Source\PSoC4/cyfitter_cfg.c **** 			{0x66u, 0xC0u},
 383:Generated_Source\PSoC4/cyfitter_cfg.c **** 			{0x68u, 0xC0u},
 384:Generated_Source\PSoC4/cyfitter_cfg.c **** 			{0x6Au, 0xC0u},
 385:Generated_Source\PSoC4/cyfitter_cfg.c **** 			{0x6Cu, 0xC0u},
 386:Generated_Source\PSoC4/cyfitter_cfg.c **** 			{0x6Eu, 0xC0u},
 387:Generated_Source\PSoC4/cyfitter_cfg.c **** 			{0x81u, 0x0Eu},
 388:Generated_Source\PSoC4/cyfitter_cfg.c **** 			{0x84u, 0x0Cu},
 389:Generated_Source\PSoC4/cyfitter_cfg.c **** 			{0x85u, 0x01u},
 390:Generated_Source\PSoC4/cyfitter_cfg.c **** 			{0x89u, 0x0Eu},
 391:Generated_Source\PSoC4/cyfitter_cfg.c **** 			{0x91u, 0x01u},
 392:Generated_Source\PSoC4/cyfitter_cfg.c **** 			{0x95u, 0x01u},
 393:Generated_Source\PSoC4/cyfitter_cfg.c **** 			{0x96u, 0x06u},
 394:Generated_Source\PSoC4/cyfitter_cfg.c **** 			{0x9Du, 0x08u},
 395:Generated_Source\PSoC4/cyfitter_cfg.c **** 			{0x9Eu, 0x02u},
 396:Generated_Source\PSoC4/cyfitter_cfg.c **** 			{0xA8u, 0x0Cu},
 397:Generated_Source\PSoC4/cyfitter_cfg.c **** 			{0xABu, 0x02u},
 398:Generated_Source\PSoC4/cyfitter_cfg.c **** 			{0xAEu, 0x01u},
 399:Generated_Source\PSoC4/cyfitter_cfg.c **** 			{0xB0u, 0x04u},
 400:Generated_Source\PSoC4/cyfitter_cfg.c **** 			{0xB1u, 0x04u},
 401:Generated_Source\PSoC4/cyfitter_cfg.c **** 			{0xB2u, 0x01u},
 402:Generated_Source\PSoC4/cyfitter_cfg.c **** 			{0xB3u, 0x08u},
 403:Generated_Source\PSoC4/cyfitter_cfg.c **** 			{0xB4u, 0x02u},
 404:Generated_Source\PSoC4/cyfitter_cfg.c **** 			{0xB5u, 0x02u},
 405:Generated_Source\PSoC4/cyfitter_cfg.c **** 			{0xB6u, 0x08u},
 406:Generated_Source\PSoC4/cyfitter_cfg.c **** 			{0xB7u, 0x01u},
 407:Generated_Source\PSoC4/cyfitter_cfg.c **** 			{0xBEu, 0x10u},
 408:Generated_Source\PSoC4/cyfitter_cfg.c **** 			{0xC0u, 0x30u},
 409:Generated_Source\PSoC4/cyfitter_cfg.c **** 			{0xC1u, 0x01u},
 410:Generated_Source\PSoC4/cyfitter_cfg.c **** 			{0xC5u, 0xD0u},
 411:Generated_Source\PSoC4/cyfitter_cfg.c **** 			{0xC6u, 0x42u},
 412:Generated_Source\PSoC4/cyfitter_cfg.c **** 			{0xC7u, 0x51u},
 413:Generated_Source\PSoC4/cyfitter_cfg.c **** 			{0xC8u, 0x3Fu},
 414:Generated_Source\PSoC4/cyfitter_cfg.c **** 			{0xC9u, 0xFFu},
 415:Generated_Source\PSoC4/cyfitter_cfg.c **** 			{0xCAu, 0xFFu},
 416:Generated_Source\PSoC4/cyfitter_cfg.c **** 			{0xCBu, 0xFFu},
 417:Generated_Source\PSoC4/cyfitter_cfg.c **** 			{0xCDu, 0xAFu},
 418:Generated_Source\PSoC4/cyfitter_cfg.c **** 			{0xCEu, 0x0Fu},
 419:Generated_Source\PSoC4/cyfitter_cfg.c **** 			{0xCFu, 0x04u},
 420:Generated_Source\PSoC4/cyfitter_cfg.c **** 			{0xD0u, 0x18u},
 421:Generated_Source\PSoC4/cyfitter_cfg.c **** 			{0xD2u, 0x80u},
 422:Generated_Source\PSoC4/cyfitter_cfg.c **** 			{0xD4u, 0x07u},
 423:Generated_Source\PSoC4/cyfitter_cfg.c **** 			{0xD8u, 0x04u},
 424:Generated_Source\PSoC4/cyfitter_cfg.c **** 			{0xD9u, 0x04u},
 425:Generated_Source\PSoC4/cyfitter_cfg.c **** 			{0xDAu, 0x04u},
 426:Generated_Source\PSoC4/cyfitter_cfg.c **** 			{0xDBu, 0x04u},
 427:Generated_Source\PSoC4/cyfitter_cfg.c **** 			{0xDFu, 0x01u},
 428:Generated_Source\PSoC4/cyfitter_cfg.c **** 			{0xE0u, 0x40u},
 429:Generated_Source\PSoC4/cyfitter_cfg.c **** 			{0xE2u, 0xC0u},
 430:Generated_Source\PSoC4/cyfitter_cfg.c **** 			{0xE4u, 0x40u},
ARM GAS  C:\Users\a83571\AppData\Local\Temp\cculJ8Gd.s 			page 16


 431:Generated_Source\PSoC4/cyfitter_cfg.c **** 			{0xE5u, 0x40u},
 432:Generated_Source\PSoC4/cyfitter_cfg.c **** 			{0xE6u, 0xC0u},
 433:Generated_Source\PSoC4/cyfitter_cfg.c **** 			{0xE8u, 0xC0u},
 434:Generated_Source\PSoC4/cyfitter_cfg.c **** 			{0xEAu, 0xC0u},
 435:Generated_Source\PSoC4/cyfitter_cfg.c **** 			{0xECu, 0xC0u},
 436:Generated_Source\PSoC4/cyfitter_cfg.c **** 			{0xEEu, 0xC0u},
 437:Generated_Source\PSoC4/cyfitter_cfg.c **** 			{0x05u, 0x08u},
 438:Generated_Source\PSoC4/cyfitter_cfg.c **** 			{0x0Du, 0x88u},
 439:Generated_Source\PSoC4/cyfitter_cfg.c **** 			{0x16u, 0x08u},
 440:Generated_Source\PSoC4/cyfitter_cfg.c **** 			{0x17u, 0x40u},
 441:Generated_Source\PSoC4/cyfitter_cfg.c **** 			{0x1Cu, 0x10u},
 442:Generated_Source\PSoC4/cyfitter_cfg.c **** 			{0x1Du, 0x08u},
 443:Generated_Source\PSoC4/cyfitter_cfg.c **** 			{0x1Eu, 0x0Au},
 444:Generated_Source\PSoC4/cyfitter_cfg.c **** 			{0x1Fu, 0x0Au},
 445:Generated_Source\PSoC4/cyfitter_cfg.c **** 			{0x25u, 0x10u},
 446:Generated_Source\PSoC4/cyfitter_cfg.c **** 			{0x26u, 0x40u},
 447:Generated_Source\PSoC4/cyfitter_cfg.c **** 			{0x27u, 0xA0u},
 448:Generated_Source\PSoC4/cyfitter_cfg.c **** 			{0x2Fu, 0x08u},
 449:Generated_Source\PSoC4/cyfitter_cfg.c **** 			{0x35u, 0x08u},
 450:Generated_Source\PSoC4/cyfitter_cfg.c **** 			{0x36u, 0x01u},
 451:Generated_Source\PSoC4/cyfitter_cfg.c **** 			{0x37u, 0x80u},
 452:Generated_Source\PSoC4/cyfitter_cfg.c **** 			{0x3Eu, 0x08u},
 453:Generated_Source\PSoC4/cyfitter_cfg.c **** 			{0x3Fu, 0x22u},
 454:Generated_Source\PSoC4/cyfitter_cfg.c **** 			{0x40u, 0x10u},
 455:Generated_Source\PSoC4/cyfitter_cfg.c **** 			{0x42u, 0x80u},
 456:Generated_Source\PSoC4/cyfitter_cfg.c **** 			{0x45u, 0x88u},
 457:Generated_Source\PSoC4/cyfitter_cfg.c **** 			{0x4Du, 0x08u},
 458:Generated_Source\PSoC4/cyfitter_cfg.c **** 			{0x4Fu, 0x01u},
 459:Generated_Source\PSoC4/cyfitter_cfg.c **** 			{0x55u, 0x80u},
 460:Generated_Source\PSoC4/cyfitter_cfg.c **** 			{0x56u, 0x88u},
 461:Generated_Source\PSoC4/cyfitter_cfg.c **** 			{0x57u, 0x11u},
 462:Generated_Source\PSoC4/cyfitter_cfg.c **** 			{0x5Eu, 0x88u},
 463:Generated_Source\PSoC4/cyfitter_cfg.c **** 			{0x5Fu, 0x21u},
 464:Generated_Source\PSoC4/cyfitter_cfg.c **** 			{0x77u, 0x40u},
 465:Generated_Source\PSoC4/cyfitter_cfg.c **** 			{0x8Du, 0x10u},
 466:Generated_Source\PSoC4/cyfitter_cfg.c **** 			{0xC0u, 0x20u},
 467:Generated_Source\PSoC4/cyfitter_cfg.c **** 			{0xC2u, 0xA0u},
 468:Generated_Source\PSoC4/cyfitter_cfg.c **** 			{0xC4u, 0xC0u},
 469:Generated_Source\PSoC4/cyfitter_cfg.c **** 			{0xCAu, 0x20u},
 470:Generated_Source\PSoC4/cyfitter_cfg.c **** 			{0xCCu, 0xD0u},
 471:Generated_Source\PSoC4/cyfitter_cfg.c **** 			{0xCEu, 0xE0u},
 472:Generated_Source\PSoC4/cyfitter_cfg.c **** 			{0xD0u, 0x53u},
 473:Generated_Source\PSoC4/cyfitter_cfg.c **** 			{0xD6u, 0xF0u},
 474:Generated_Source\PSoC4/cyfitter_cfg.c **** 			{0x10u, 0x02u},
 475:Generated_Source\PSoC4/cyfitter_cfg.c **** 			{0x26u, 0x03u},
 476:Generated_Source\PSoC4/cyfitter_cfg.c **** 			{0x30u, 0x01u},
 477:Generated_Source\PSoC4/cyfitter_cfg.c **** 			{0x32u, 0x02u},
 478:Generated_Source\PSoC4/cyfitter_cfg.c **** 			{0x40u, 0x60u},
 479:Generated_Source\PSoC4/cyfitter_cfg.c **** 			{0x41u, 0x05u},
 480:Generated_Source\PSoC4/cyfitter_cfg.c **** 			{0x49u, 0xFFu},
 481:Generated_Source\PSoC4/cyfitter_cfg.c **** 			{0x4Au, 0xFFu},
 482:Generated_Source\PSoC4/cyfitter_cfg.c **** 			{0x4Bu, 0xFFu},
 483:Generated_Source\PSoC4/cyfitter_cfg.c **** 			{0x4Du, 0xA0u},
 484:Generated_Source\PSoC4/cyfitter_cfg.c **** 			{0x4Fu, 0x04u},
 485:Generated_Source\PSoC4/cyfitter_cfg.c **** 			{0x50u, 0x18u},
 486:Generated_Source\PSoC4/cyfitter_cfg.c **** 			{0x58u, 0x04u},
 487:Generated_Source\PSoC4/cyfitter_cfg.c **** 			{0x5Au, 0x04u},
ARM GAS  C:\Users\a83571\AppData\Local\Temp\cculJ8Gd.s 			page 17


 488:Generated_Source\PSoC4/cyfitter_cfg.c **** 			{0x5Fu, 0x01u},
 489:Generated_Source\PSoC4/cyfitter_cfg.c **** 			{0x60u, 0x40u},
 490:Generated_Source\PSoC4/cyfitter_cfg.c **** 			{0x62u, 0xC0u},
 491:Generated_Source\PSoC4/cyfitter_cfg.c **** 			{0x64u, 0x40u},
 492:Generated_Source\PSoC4/cyfitter_cfg.c **** 			{0x65u, 0x40u},
 493:Generated_Source\PSoC4/cyfitter_cfg.c **** 			{0x66u, 0xC0u},
 494:Generated_Source\PSoC4/cyfitter_cfg.c **** 			{0x68u, 0xC0u},
 495:Generated_Source\PSoC4/cyfitter_cfg.c **** 			{0x6Au, 0xC0u},
 496:Generated_Source\PSoC4/cyfitter_cfg.c **** 			{0x6Cu, 0xC0u},
 497:Generated_Source\PSoC4/cyfitter_cfg.c **** 			{0x6Eu, 0xC0u},
 498:Generated_Source\PSoC4/cyfitter_cfg.c **** 			{0x86u, 0x06u},
 499:Generated_Source\PSoC4/cyfitter_cfg.c **** 			{0x8Eu, 0x02u},
 500:Generated_Source\PSoC4/cyfitter_cfg.c **** 			{0x92u, 0x01u},
 501:Generated_Source\PSoC4/cyfitter_cfg.c **** 			{0x99u, 0x01u},
 502:Generated_Source\PSoC4/cyfitter_cfg.c **** 			{0x9Du, 0x01u},
 503:Generated_Source\PSoC4/cyfitter_cfg.c **** 			{0xA0u, 0x0Cu},
 504:Generated_Source\PSoC4/cyfitter_cfg.c **** 			{0xA4u, 0x0Cu},
 505:Generated_Source\PSoC4/cyfitter_cfg.c **** 			{0xADu, 0x01u},
 506:Generated_Source\PSoC4/cyfitter_cfg.c **** 			{0xB0u, 0x08u},
 507:Generated_Source\PSoC4/cyfitter_cfg.c **** 			{0xB2u, 0x02u},
 508:Generated_Source\PSoC4/cyfitter_cfg.c **** 			{0xB4u, 0x01u},
 509:Generated_Source\PSoC4/cyfitter_cfg.c **** 			{0xB6u, 0x04u},
 510:Generated_Source\PSoC4/cyfitter_cfg.c **** 			{0xB7u, 0x01u},
 511:Generated_Source\PSoC4/cyfitter_cfg.c **** 			{0xB9u, 0x02u},
 512:Generated_Source\PSoC4/cyfitter_cfg.c **** 			{0xBEu, 0x04u},
 513:Generated_Source\PSoC4/cyfitter_cfg.c **** 			{0xBFu, 0x01u},
 514:Generated_Source\PSoC4/cyfitter_cfg.c **** 			{0xC0u, 0x20u},
 515:Generated_Source\PSoC4/cyfitter_cfg.c **** 			{0xC1u, 0x05u},
 516:Generated_Source\PSoC4/cyfitter_cfg.c **** 			{0xC5u, 0xD1u},
 517:Generated_Source\PSoC4/cyfitter_cfg.c **** 			{0xC7u, 0x25u},
 518:Generated_Source\PSoC4/cyfitter_cfg.c **** 			{0xC8u, 0x37u},
 519:Generated_Source\PSoC4/cyfitter_cfg.c **** 			{0xC9u, 0xFFu},
 520:Generated_Source\PSoC4/cyfitter_cfg.c **** 			{0xCAu, 0xFFu},
 521:Generated_Source\PSoC4/cyfitter_cfg.c **** 			{0xCBu, 0xFFu},
 522:Generated_Source\PSoC4/cyfitter_cfg.c **** 			{0xCDu, 0xAFu},
 523:Generated_Source\PSoC4/cyfitter_cfg.c **** 			{0xCEu, 0x0Fu},
 524:Generated_Source\PSoC4/cyfitter_cfg.c **** 			{0xCFu, 0x04u},
 525:Generated_Source\PSoC4/cyfitter_cfg.c **** 			{0xD0u, 0x18u},
 526:Generated_Source\PSoC4/cyfitter_cfg.c **** 			{0xD2u, 0x80u},
 527:Generated_Source\PSoC4/cyfitter_cfg.c **** 			{0xD4u, 0x07u},
 528:Generated_Source\PSoC4/cyfitter_cfg.c **** 			{0xD8u, 0x04u},
 529:Generated_Source\PSoC4/cyfitter_cfg.c **** 			{0xD9u, 0x04u},
 530:Generated_Source\PSoC4/cyfitter_cfg.c **** 			{0xDAu, 0x04u},
 531:Generated_Source\PSoC4/cyfitter_cfg.c **** 			{0xDBu, 0x04u},
 532:Generated_Source\PSoC4/cyfitter_cfg.c **** 			{0xDFu, 0x01u},
 533:Generated_Source\PSoC4/cyfitter_cfg.c **** 			{0xE0u, 0x40u},
 534:Generated_Source\PSoC4/cyfitter_cfg.c **** 			{0xE2u, 0xC0u},
 535:Generated_Source\PSoC4/cyfitter_cfg.c **** 			{0xE4u, 0x40u},
 536:Generated_Source\PSoC4/cyfitter_cfg.c **** 			{0xE5u, 0x40u},
 537:Generated_Source\PSoC4/cyfitter_cfg.c **** 			{0xE6u, 0xC0u},
 538:Generated_Source\PSoC4/cyfitter_cfg.c **** 			{0xE8u, 0xC0u},
 539:Generated_Source\PSoC4/cyfitter_cfg.c **** 			{0xEAu, 0xC0u},
 540:Generated_Source\PSoC4/cyfitter_cfg.c **** 			{0xECu, 0xC0u},
 541:Generated_Source\PSoC4/cyfitter_cfg.c **** 			{0xEEu, 0xC0u},
 542:Generated_Source\PSoC4/cyfitter_cfg.c **** 			{0x00u, 0x04u},
 543:Generated_Source\PSoC4/cyfitter_cfg.c **** 			{0x02u, 0x02u},
 544:Generated_Source\PSoC4/cyfitter_cfg.c **** 			{0x0Au, 0x40u},
ARM GAS  C:\Users\a83571\AppData\Local\Temp\cculJ8Gd.s 			page 18


 545:Generated_Source\PSoC4/cyfitter_cfg.c **** 			{0x0Eu, 0x80u},
 546:Generated_Source\PSoC4/cyfitter_cfg.c **** 			{0x10u, 0xA0u},
 547:Generated_Source\PSoC4/cyfitter_cfg.c **** 			{0x15u, 0x08u},
 548:Generated_Source\PSoC4/cyfitter_cfg.c **** 			{0x18u, 0x04u},
 549:Generated_Source\PSoC4/cyfitter_cfg.c **** 			{0x19u, 0x08u},
 550:Generated_Source\PSoC4/cyfitter_cfg.c **** 			{0x1Bu, 0x91u},
 551:Generated_Source\PSoC4/cyfitter_cfg.c **** 			{0x1Eu, 0x90u},
 552:Generated_Source\PSoC4/cyfitter_cfg.c **** 			{0x21u, 0x02u},
 553:Generated_Source\PSoC4/cyfitter_cfg.c **** 			{0x22u, 0x40u},
 554:Generated_Source\PSoC4/cyfitter_cfg.c **** 			{0x2Bu, 0x01u},
 555:Generated_Source\PSoC4/cyfitter_cfg.c **** 			{0x30u, 0xA0u},
 556:Generated_Source\PSoC4/cyfitter_cfg.c **** 			{0x40u, 0x04u},
 557:Generated_Source\PSoC4/cyfitter_cfg.c **** 			{0x48u, 0x20u},
 558:Generated_Source\PSoC4/cyfitter_cfg.c **** 			{0x49u, 0x01u},
 559:Generated_Source\PSoC4/cyfitter_cfg.c **** 			{0x4Au, 0x02u},
 560:Generated_Source\PSoC4/cyfitter_cfg.c **** 			{0x4Eu, 0x02u},
 561:Generated_Source\PSoC4/cyfitter_cfg.c **** 			{0x4Fu, 0x20u},
 562:Generated_Source\PSoC4/cyfitter_cfg.c **** 			{0x50u, 0x80u},
 563:Generated_Source\PSoC4/cyfitter_cfg.c **** 			{0x51u, 0x04u},
 564:Generated_Source\PSoC4/cyfitter_cfg.c **** 			{0x52u, 0x02u},
 565:Generated_Source\PSoC4/cyfitter_cfg.c **** 			{0x59u, 0x09u},
 566:Generated_Source\PSoC4/cyfitter_cfg.c **** 			{0x5Au, 0x90u},
 567:Generated_Source\PSoC4/cyfitter_cfg.c **** 			{0x72u, 0x40u},
 568:Generated_Source\PSoC4/cyfitter_cfg.c **** 			{0x85u, 0x02u},
 569:Generated_Source\PSoC4/cyfitter_cfg.c **** 			{0x87u, 0x80u},
 570:Generated_Source\PSoC4/cyfitter_cfg.c **** 			{0xB3u, 0x02u},
 571:Generated_Source\PSoC4/cyfitter_cfg.c **** 			{0xC0u, 0x05u},
 572:Generated_Source\PSoC4/cyfitter_cfg.c **** 			{0xC2u, 0x18u},
 573:Generated_Source\PSoC4/cyfitter_cfg.c **** 			{0xC4u, 0x2Cu},
 574:Generated_Source\PSoC4/cyfitter_cfg.c **** 			{0xCAu, 0x08u},
 575:Generated_Source\PSoC4/cyfitter_cfg.c **** 			{0xCCu, 0x0Cu},
 576:Generated_Source\PSoC4/cyfitter_cfg.c **** 			{0xD0u, 0x04u},
 577:Generated_Source\PSoC4/cyfitter_cfg.c **** 			{0xD2u, 0x38u},
 578:Generated_Source\PSoC4/cyfitter_cfg.c **** 			{0xD6u, 0x0Fu},
 579:Generated_Source\PSoC4/cyfitter_cfg.c **** 			{0xE4u, 0x08u},
 580:Generated_Source\PSoC4/cyfitter_cfg.c **** 			{0x3Bu, 0x04u},
 581:Generated_Source\PSoC4/cyfitter_cfg.c **** 			{0x3Fu, 0x04u},
 582:Generated_Source\PSoC4/cyfitter_cfg.c **** 			{0x87u, 0x04u},
 583:Generated_Source\PSoC4/cyfitter_cfg.c **** 			{0xCEu, 0xC0u},
 584:Generated_Source\PSoC4/cyfitter_cfg.c **** 			{0xE2u, 0x40u},
 585:Generated_Source\PSoC4/cyfitter_cfg.c **** 			{0x5Eu, 0x01u},
 586:Generated_Source\PSoC4/cyfitter_cfg.c **** 			{0x8Cu, 0x01u},
 587:Generated_Source\PSoC4/cyfitter_cfg.c **** 			{0xD6u, 0x01u},
 588:Generated_Source\PSoC4/cyfitter_cfg.c **** 			{0xE4u, 0x08u},
 589:Generated_Source\PSoC4/cyfitter_cfg.c **** 			{0x5Cu, 0x08u},
 590:Generated_Source\PSoC4/cyfitter_cfg.c **** 			{0x60u, 0x01u},
 591:Generated_Source\PSoC4/cyfitter_cfg.c **** 			{0x84u, 0x08u},
 592:Generated_Source\PSoC4/cyfitter_cfg.c **** 			{0x90u, 0x01u},
 593:Generated_Source\PSoC4/cyfitter_cfg.c **** 			{0xB2u, 0x01u},
 594:Generated_Source\PSoC4/cyfitter_cfg.c **** 			{0xD6u, 0x03u},
 595:Generated_Source\PSoC4/cyfitter_cfg.c **** 			{0xECu, 0x01u},
 596:Generated_Source\PSoC4/cyfitter_cfg.c **** 			{0x01u, 0x01u},
 597:Generated_Source\PSoC4/cyfitter_cfg.c **** 			{0x10u, 0x01u},
 598:Generated_Source\PSoC4/cyfitter_cfg.c **** 		};
 599:Generated_Source\PSoC4/cyfitter_cfg.c **** 
 600:Generated_Source\PSoC4/cyfitter_cfg.c **** 
 601:Generated_Source\PSoC4/cyfitter_cfg.c **** 
ARM GAS  C:\Users\a83571\AppData\Local\Temp\cculJ8Gd.s 			page 19


 602:Generated_Source\PSoC4/cyfitter_cfg.c **** 		CYPACKED typedef struct {
 603:Generated_Source\PSoC4/cyfitter_cfg.c **** 			void CYFAR *address;
 604:Generated_Source\PSoC4/cyfitter_cfg.c **** 			uint16 size;
 605:Generated_Source\PSoC4/cyfitter_cfg.c **** 		} CYPACKED_ATTR cfg_memset_t;
 606:Generated_Source\PSoC4/cyfitter_cfg.c **** 
 607:Generated_Source\PSoC4/cyfitter_cfg.c **** 		static const cfg_memset_t CYCODE cfg_memset_list [] = {
 608:Generated_Source\PSoC4/cyfitter_cfg.c **** 			/* address, size */
 609:Generated_Source\PSoC4/cyfitter_cfg.c **** 			{(void CYFAR *)(CYDEV_UDB_P0_U0_BASE), 1024u},
 610:Generated_Source\PSoC4/cyfitter_cfg.c **** 			{(void CYFAR *)(CYDEV_UDB_DSI0_BASE), 1024u},
 611:Generated_Source\PSoC4/cyfitter_cfg.c **** 		};
 612:Generated_Source\PSoC4/cyfitter_cfg.c **** 
 613:Generated_Source\PSoC4/cyfitter_cfg.c **** 		uint8 CYDATA i;
 614:Generated_Source\PSoC4/cyfitter_cfg.c **** 
 615:Generated_Source\PSoC4/cyfitter_cfg.c **** 		/* Zero out critical memory blocks before beginning configuration */
 616:Generated_Source\PSoC4/cyfitter_cfg.c **** 		for (i = 0u; i < (sizeof(cfg_memset_list)/sizeof(cfg_memset_list[0])); i++)
 414              		.loc 1 616 0
 415 011a 0024     		mov	r4, #0
 416 011c 10E0     		b	.L21
 417              	.LVL34:
 418              	.L22:
 419              	.LBB4:
 617:Generated_Source\PSoC4/cyfitter_cfg.c **** 		{
 618:Generated_Source\PSoC4/cyfitter_cfg.c **** 			const cfg_memset_t CYCODE * CYDATA ms = &cfg_memset_list[i];
 619:Generated_Source\PSoC4/cyfitter_cfg.c **** 			CYMEMZERO(ms->address, (size_t)(uint32)(ms->size));
 420              		.loc 1 619 0 discriminator 3
 421 011e 3448     		ldr	r0, .L23+4
 422 0120 6300     		lsl	r3, r4, #1
 423 0122 1A19     		add	r2, r3, r4
 424 0124 5200     		lsl	r2, r2, #1
 425 0126 8218     		add	r2, r0, r2
 426 0128 9188     		ldrh	r1, [r2, #4]
 427 012a 1B19     		add	r3, r3, r4
 428 012c 5B00     		lsl	r3, r3, #1
 429 012e 1A5A     		ldrh	r2, [r3, r0]
 430 0130 C318     		add	r3, r0, r3
 431 0132 5888     		ldrh	r0, [r3, #2]
 432 0134 0004     		lsl	r0, r0, #16
 433 0136 1043     		orr	r0, r2
 434 0138 FFF7FEFF 		bl	CYMEMZERO
 435              	.LVL35:
 436              	.LBE4:
 616:Generated_Source\PSoC4/cyfitter_cfg.c **** 		{
 437              		.loc 1 616 0 discriminator 3
 438 013c 0134     		add	r4, r4, #1
 439              	.LVL36:
 440 013e E4B2     		uxtb	r4, r4
 441              	.LVL37:
 442              	.L21:
 616:Generated_Source\PSoC4/cyfitter_cfg.c **** 		{
 443              		.loc 1 616 0 is_stmt 0 discriminator 1
 444 0140 012C     		cmp	r4, #1
 445 0142 ECD9     		bls	.L22
 620:Generated_Source\PSoC4/cyfitter_cfg.c **** 		}
 621:Generated_Source\PSoC4/cyfitter_cfg.c **** 
 622:Generated_Source\PSoC4/cyfitter_cfg.c **** 		cfg_write_bytes32(cy_cfg_addr_table, cy_cfg_data_table);
 446              		.loc 1 622 0 is_stmt 1
 447 0144 2A49     		ldr	r1, .L23+4
ARM GAS  C:\Users\a83571\AppData\Local\Temp\cculJ8Gd.s 			page 20


 448 0146 081C     		mov	r0, r1
 449 0148 0C30     		add	r0, r0, #12
 450 014a 3031     		add	r1, r1, #48
 451 014c FFF7FEFF 		bl	cfg_write_bytes32
 452              	.LVL38:
 623:Generated_Source\PSoC4/cyfitter_cfg.c **** 
 624:Generated_Source\PSoC4/cyfitter_cfg.c **** 		/* PWR_BG_CONFIG Starting address: CYDEV_PWR_BG_CONFIG */
 625:Generated_Source\PSoC4/cyfitter_cfg.c **** 		CY_SET_XTND_REG32((void CYFAR *)(CYREG_PWR_BG_CONFIG), 0x00040000u);
 453              		.loc 1 625 0
 454 0150 8022     		mov	r2, #128
 455 0152 D202     		lsl	r2, r2, #11
 456 0154 274B     		ldr	r3, .L23+8
 457 0156 1A60     		str	r2, [r3]
 626:Generated_Source\PSoC4/cyfitter_cfg.c **** 
 627:Generated_Source\PSoC4/cyfitter_cfg.c **** 		/* HSIOM Starting address: CYDEV_HSIOM_BASE */
 628:Generated_Source\PSoC4/cyfitter_cfg.c **** 		CY_SET_XTND_REG32((void CYFAR *)(CYDEV_HSIOM_BASE), 0xEE000000u);
 458              		.loc 1 628 0
 459 0158 EE22     		mov	r2, #238
 460 015a 1206     		lsl	r2, r2, #24
 461 015c 264B     		ldr	r3, .L23+12
 462 015e 1A60     		str	r2, [r3]
 629:Generated_Source\PSoC4/cyfitter_cfg.c **** 		CY_SET_XTND_REG32((void CYFAR *)(CYREG_HSIOM_PORT_SEL2), 0x03000000u);
 463              		.loc 1 629 0
 464 0160 C022     		mov	r2, #192
 465 0162 9204     		lsl	r2, r2, #18
 466 0164 254B     		ldr	r3, .L23+16
 467 0166 1A60     		str	r2, [r3]
 630:Generated_Source\PSoC4/cyfitter_cfg.c **** 		CY_SET_XTND_REG32((void CYFAR *)(CYREG_HSIOM_PORT_SEL3), 0x33000000u);
 468              		.loc 1 630 0
 469 0168 CC22     		mov	r2, #204
 470 016a 9205     		lsl	r2, r2, #22
 471 016c 244B     		ldr	r3, .L23+20
 472 016e 1A60     		str	r2, [r3]
 631:Generated_Source\PSoC4/cyfitter_cfg.c **** 
 632:Generated_Source\PSoC4/cyfitter_cfg.c **** 		/* UDB_PA_0 Starting address: CYDEV_UDB_PA0_BASE */
 633:Generated_Source\PSoC4/cyfitter_cfg.c **** 		CY_SET_XTND_REG32((void CYFAR *)(CYDEV_UDB_PA0_BASE), 0x00990000u);
 473              		.loc 1 633 0
 474 0170 9923     		mov	r3, #153
 475 0172 1B04     		lsl	r3, r3, #16
 476 0174 234A     		ldr	r2, .L23+24
 477 0176 1360     		str	r3, [r2]
 634:Generated_Source\PSoC4/cyfitter_cfg.c **** 
 635:Generated_Source\PSoC4/cyfitter_cfg.c **** 		/* UDB_PA_2 Starting address: CYDEV_UDB_PA2_BASE */
 636:Generated_Source\PSoC4/cyfitter_cfg.c **** 		CY_SET_XTND_REG32((void CYFAR *)(CYDEV_UDB_PA2_BASE), 0x00990000u);
 478              		.loc 1 636 0
 479 0178 234A     		ldr	r2, .L23+28
 480 017a 1360     		str	r3, [r2]
 637:Generated_Source\PSoC4/cyfitter_cfg.c **** 		CY_SET_XTND_REG32((void CYFAR *)(CYREG_UDB_PA2_CFG8), 0x10000000u);
 481              		.loc 1 637 0
 482 017c 8021     		mov	r1, #128
 483 017e 4905     		lsl	r1, r1, #21
 484 0180 224A     		ldr	r2, .L23+32
 485 0182 1160     		str	r1, [r2]
 638:Generated_Source\PSoC4/cyfitter_cfg.c **** 
 639:Generated_Source\PSoC4/cyfitter_cfg.c **** 		/* UDB_PA_3 Starting address: CYDEV_UDB_PA3_BASE */
 640:Generated_Source\PSoC4/cyfitter_cfg.c **** 		CY_SET_XTND_REG32((void CYFAR *)(CYDEV_UDB_PA3_BASE), 0x00990000u);
 486              		.loc 1 640 0
ARM GAS  C:\Users\a83571\AppData\Local\Temp\cculJ8Gd.s 			page 21


 487 0184 224A     		ldr	r2, .L23+36
 488 0186 1360     		str	r3, [r2]
 641:Generated_Source\PSoC4/cyfitter_cfg.c **** 		CY_SET_XTND_REG32((void CYFAR *)(CYREG_UDB_PA3_CFG8), 0x4A000000u);
 489              		.loc 1 641 0
 490 0188 9422     		mov	r2, #148
 491 018a D205     		lsl	r2, r2, #23
 492 018c 214B     		ldr	r3, .L23+40
 493 018e 1A60     		str	r2, [r3]
 642:Generated_Source\PSoC4/cyfitter_cfg.c **** 
 643:Generated_Source\PSoC4/cyfitter_cfg.c **** 		/* Enable digital routing */
 644:Generated_Source\PSoC4/cyfitter_cfg.c **** 		CY_SET_XTND_REG8((void *)CYREG_UDB_UDBIF_BANK_CTL, CY_GET_XTND_REG8((void *)CYREG_UDB_UDBIF_BANK_
 494              		.loc 1 644 0
 495 0190 214B     		ldr	r3, .L23+44
 496 0192 1978     		ldrb	r1, [r3]
 497 0194 0222     		mov	r2, #2
 498 0196 0A43     		orr	r2, r1
 499 0198 1A70     		strb	r2, [r3]
 645:Generated_Source\PSoC4/cyfitter_cfg.c **** 
 646:Generated_Source\PSoC4/cyfitter_cfg.c **** 		/* Enable UDB array */
 647:Generated_Source\PSoC4/cyfitter_cfg.c **** 		CY_SET_XTND_REG8((void *)CYREG_UDB_UDBIF_WAIT_CFG, (uint8)((CY_GET_XTND_REG8((void *)CYREG_UDB_UD
 500              		.loc 1 647 0
 501 019a 2048     		ldr	r0, .L23+48
 502 019c 0278     		ldrb	r2, [r0]
 503 019e 3C21     		mov	r1, #60
 504 01a0 8A43     		bic	r2, r1
 505 01a2 2839     		sub	r1, r1, #40
 506 01a4 0A43     		orr	r2, r1
 507 01a6 0270     		strb	r2, [r0]
 648:Generated_Source\PSoC4/cyfitter_cfg.c **** 		CY_SET_XTND_REG8((void *)CYREG_UDB_UDBIF_BANK_CTL, (uint8)(CY_GET_XTND_REG8((void *)CYREG_UDB_UDB
 508              		.loc 1 648 0
 509 01a8 1978     		ldrb	r1, [r3]
 510 01aa 1622     		mov	r2, #22
 511 01ac 0A43     		orr	r2, r1
 512 01ae 1A70     		strb	r2, [r3]
 513              	.LBE3:
 649:Generated_Source\PSoC4/cyfitter_cfg.c **** 	}
 650:Generated_Source\PSoC4/cyfitter_cfg.c **** 
 651:Generated_Source\PSoC4/cyfitter_cfg.c **** 	/* Perform second pass device configuration. These items must be configured in specific order afte
 652:Generated_Source\PSoC4/cyfitter_cfg.c **** 	/* IOPINS0_0 Starting address: CYDEV_GPIO_PRT0_BASE */
 653:Generated_Source\PSoC4/cyfitter_cfg.c **** 	CY_SET_XTND_REG32((void CYFAR *)(CYREG_GPIO_PRT0_PC), 0x00D80000u);
 514              		.loc 1 653 0
 515 01b0 D823     		mov	r3, #216
 516 01b2 1B04     		lsl	r3, r3, #16
 517 01b4 1A4A     		ldr	r2, .L23+52
 518 01b6 1360     		str	r3, [r2]
 654:Generated_Source\PSoC4/cyfitter_cfg.c **** 
 655:Generated_Source\PSoC4/cyfitter_cfg.c **** 	/* IOPINS0_2 Starting address: CYDEV_GPIO_PRT2_BASE */
 656:Generated_Source\PSoC4/cyfitter_cfg.c **** 	CY_SET_XTND_REG32((void CYFAR *)(CYDEV_GPIO_PRT2_BASE), 0x0000007Eu);
 519              		.loc 1 656 0
 520 01b8 7E21     		mov	r1, #126
 521 01ba 1A4A     		ldr	r2, .L23+56
 522 01bc 1160     		str	r1, [r2]
 657:Generated_Source\PSoC4/cyfitter_cfg.c **** 	CY_SET_XTND_REG32((void CYFAR *)(CYREG_GPIO_PRT2_PC), 0x00180000u);
 523              		.loc 1 657 0
 524 01be C021     		mov	r1, #192
 525 01c0 4903     		lsl	r1, r1, #13
 526 01c2 194A     		ldr	r2, .L23+60
ARM GAS  C:\Users\a83571\AppData\Local\Temp\cculJ8Gd.s 			page 22


 527 01c4 1160     		str	r1, [r2]
 658:Generated_Source\PSoC4/cyfitter_cfg.c **** 	CY_SET_XTND_REG32((void CYFAR *)(CYREG_GPIO_PRT2_PC2), 0x0000003Eu);
 528              		.loc 1 658 0
 529 01c6 3E21     		mov	r1, #62
 530 01c8 184A     		ldr	r2, .L23+64
 531 01ca 1160     		str	r1, [r2]
 659:Generated_Source\PSoC4/cyfitter_cfg.c **** 
 660:Generated_Source\PSoC4/cyfitter_cfg.c **** 	/* IOPINS0_3 Starting address: CYDEV_GPIO_PRT3_BASE */
 661:Generated_Source\PSoC4/cyfitter_cfg.c **** 	CY_SET_XTND_REG32((void CYFAR *)(CYDEV_GPIO_PRT3_BASE), 0x000000C0u);
 532              		.loc 1 661 0
 533 01cc 8231     		add	r1, r1, #130
 534 01ce 184A     		ldr	r2, .L23+68
 535 01d0 1160     		str	r1, [r2]
 662:Generated_Source\PSoC4/cyfitter_cfg.c **** 	CY_SET_XTND_REG32((void CYFAR *)(CYREG_GPIO_PRT3_PC), 0x00D80000u);
 536              		.loc 1 662 0
 537 01d2 184A     		ldr	r2, .L23+72
 538 01d4 1360     		str	r3, [r2]
 663:Generated_Source\PSoC4/cyfitter_cfg.c **** 
 664:Generated_Source\PSoC4/cyfitter_cfg.c **** 	/* IOPINS0_4 Starting address: CYDEV_GPIO_PRT4_BASE */
 665:Generated_Source\PSoC4/cyfitter_cfg.c **** 	CY_SET_XTND_REG32((void CYFAR *)(CYDEV_GPIO_PRT4_BASE), 0x00000001u);
 539              		.loc 1 665 0
 540 01d6 0123     		mov	r3, #1
 541 01d8 174A     		ldr	r2, .L23+76
 542 01da 1360     		str	r3, [r2]
 666:Generated_Source\PSoC4/cyfitter_cfg.c **** 	CY_SET_XTND_REG32((void CYFAR *)(CYREG_GPIO_PRT4_PC2), 0x00000001u);
 543              		.loc 1 666 0
 544 01dc 174A     		ldr	r2, .L23+80
 545 01de 1360     		str	r3, [r2]
 667:Generated_Source\PSoC4/cyfitter_cfg.c **** 
 668:Generated_Source\PSoC4/cyfitter_cfg.c **** 
 669:Generated_Source\PSoC4/cyfitter_cfg.c **** 	/* Setup clocks based on selections from Clock DWR */
 670:Generated_Source\PSoC4/cyfitter_cfg.c **** 	ClockSetup();
 546              		.loc 1 670 0
 547 01e0 FFF70EFF 		bl	ClockSetup
 548              	.LVL39:
 671:Generated_Source\PSoC4/cyfitter_cfg.c **** 
 672:Generated_Source\PSoC4/cyfitter_cfg.c **** 	/* Perform basic analog initialization to defaults */
 673:Generated_Source\PSoC4/cyfitter_cfg.c **** 	AnalogSetDefault();
 549              		.loc 1 673 0
 550 01e4 FFF7FEFF 		bl	AnalogSetDefault
 551              	.LVL40:
 674:Generated_Source\PSoC4/cyfitter_cfg.c **** 
 675:Generated_Source\PSoC4/cyfitter_cfg.c **** }
 552              		.loc 1 675 0
 553              		@ sp needed
 554              	.LVL41:
 555 01e8 10BD     		pop	{r4, pc}
 556              	.L24:
 557 01ea C046     		.align	2
 558              	.L23:
 559 01ec 6CF02E40 		.word	1076818028
 560 01f0 00000000 		.word	.LANCHOR0
 561 01f4 14000B40 		.word	1074462740
 562 01f8 00000240 		.word	1073872896
 563 01fc 00020240 		.word	1073873408
 564 0200 00030240 		.word	1073873664
 565 0204 00500F40 		.word	1074745344
ARM GAS  C:\Users\a83571\AppData\Local\Temp\cculJ8Gd.s 			page 23


 566 0208 20500F40 		.word	1074745376
 567 020c 28500F40 		.word	1074745384
 568 0210 30500F40 		.word	1074745392
 569 0214 38500F40 		.word	1074745400
 570 0218 00700F40 		.word	1074753536
 571 021c 01700F40 		.word	1074753537
 572 0220 08000440 		.word	1074003976
 573 0224 00020440 		.word	1074004480
 574 0228 08020440 		.word	1074004488
 575 022c 18020440 		.word	1074004504
 576 0230 00030440 		.word	1074004736
 577 0234 08030440 		.word	1074004744
 578 0238 00040440 		.word	1074004992
 579 023c 18040440 		.word	1074005016
 580              		.cfi_endproc
 581              	.LFE9:
 582              		.size	cyfitter_cfg, .-cyfitter_cfg
 583              		.section	.rodata
 584              		.align	2
 585              		.set	.LANCHOR0,. + 0
 586              		.type	cfg_memset_list.4791, %object
 587              		.size	cfg_memset_list.4791, 12
 588              	cfg_memset_list.4791:
 589 0000 00300F40 		.word	1074737152
 590 0004 0004     		.short	1024
 591 0006 00400F40 		.4byte	1074741248
 592 000a 0004     		.short	1024
 593              		.type	cy_cfg_addr_table.4785, %object
 594              		.size	cy_cfg_addr_table.4785, 36
 595              	cy_cfg_addr_table.4785:
 596 000c 02000F40 		.word	1074724866
 597 0010 45300F40 		.word	1074737221
 598 0014 25310F40 		.word	1074737445
 599 0018 44320F40 		.word	1074737732
 600 001c 26330F40 		.word	1074737958
 601 0020 05410F40 		.word	1074741509
 602 0024 04420F40 		.word	1074741764
 603 0028 07430F40 		.word	1074742023
 604 002c 02600F40 		.word	1074749442
 605              		.type	cy_cfg_data_table.4786, %object
 606              		.size	cy_cfg_data_table.4786, 464
 607              	cy_cfg_data_table.4786:
 608 0030 81       		.byte	-127
 609 0031 0F       		.byte	15
 610 0032 83       		.byte	-125
 611 0033 0F       		.byte	15
 612 0034 40       		.byte	64
 613 0035 30       		.byte	48
 614 0036 41       		.byte	65
 615 0037 04       		.byte	4
 616 0038 49       		.byte	73
 617 0039 FF       		.byte	-1
 618 003a 4A       		.byte	74
 619 003b FF       		.byte	-1
 620 003c 4B       		.byte	75
 621 003d FF       		.byte	-1
 622 003e 4D       		.byte	77
ARM GAS  C:\Users\a83571\AppData\Local\Temp\cculJ8Gd.s 			page 24


 623 003f A0       		.byte	-96
 624 0040 4F       		.byte	79
 625 0041 04       		.byte	4
 626 0042 50       		.byte	80
 627 0043 18       		.byte	24
 628 0044 5A       		.byte	90
 629 0045 04       		.byte	4
 630 0046 5F       		.byte	95
 631 0047 01       		.byte	1
 632 0048 60       		.byte	96
 633 0049 40       		.byte	64
 634 004a 62       		.byte	98
 635 004b C0       		.byte	-64
 636 004c 64       		.byte	100
 637 004d 40       		.byte	64
 638 004e 65       		.byte	101
 639 004f 40       		.byte	64
 640 0050 66       		.byte	102
 641 0051 C0       		.byte	-64
 642 0052 68       		.byte	104
 643 0053 C0       		.byte	-64
 644 0054 6A       		.byte	106
 645 0055 C0       		.byte	-64
 646 0056 6C       		.byte	108
 647 0057 C0       		.byte	-64
 648 0058 6E       		.byte	110
 649 0059 C0       		.byte	-64
 650 005a 81       		.byte	-127
 651 005b 0E       		.byte	14
 652 005c 84       		.byte	-124
 653 005d 0C       		.byte	12
 654 005e 85       		.byte	-123
 655 005f 01       		.byte	1
 656 0060 89       		.byte	-119
 657 0061 0E       		.byte	14
 658 0062 91       		.byte	-111
 659 0063 01       		.byte	1
 660 0064 95       		.byte	-107
 661 0065 01       		.byte	1
 662 0066 96       		.byte	-106
 663 0067 06       		.byte	6
 664 0068 9D       		.byte	-99
 665 0069 08       		.byte	8
 666 006a 9E       		.byte	-98
 667 006b 02       		.byte	2
 668 006c A8       		.byte	-88
 669 006d 0C       		.byte	12
 670 006e AB       		.byte	-85
 671 006f 02       		.byte	2
 672 0070 AE       		.byte	-82
 673 0071 01       		.byte	1
 674 0072 B0       		.byte	-80
 675 0073 04       		.byte	4
 676 0074 B1       		.byte	-79
 677 0075 04       		.byte	4
 678 0076 B2       		.byte	-78
 679 0077 01       		.byte	1
ARM GAS  C:\Users\a83571\AppData\Local\Temp\cculJ8Gd.s 			page 25


 680 0078 B3       		.byte	-77
 681 0079 08       		.byte	8
 682 007a B4       		.byte	-76
 683 007b 02       		.byte	2
 684 007c B5       		.byte	-75
 685 007d 02       		.byte	2
 686 007e B6       		.byte	-74
 687 007f 08       		.byte	8
 688 0080 B7       		.byte	-73
 689 0081 01       		.byte	1
 690 0082 BE       		.byte	-66
 691 0083 10       		.byte	16
 692 0084 C0       		.byte	-64
 693 0085 30       		.byte	48
 694 0086 C1       		.byte	-63
 695 0087 01       		.byte	1
 696 0088 C5       		.byte	-59
 697 0089 D0       		.byte	-48
 698 008a C6       		.byte	-58
 699 008b 42       		.byte	66
 700 008c C7       		.byte	-57
 701 008d 51       		.byte	81
 702 008e C8       		.byte	-56
 703 008f 3F       		.byte	63
 704 0090 C9       		.byte	-55
 705 0091 FF       		.byte	-1
 706 0092 CA       		.byte	-54
 707 0093 FF       		.byte	-1
 708 0094 CB       		.byte	-53
 709 0095 FF       		.byte	-1
 710 0096 CD       		.byte	-51
 711 0097 AF       		.byte	-81
 712 0098 CE       		.byte	-50
 713 0099 0F       		.byte	15
 714 009a CF       		.byte	-49
 715 009b 04       		.byte	4
 716 009c D0       		.byte	-48
 717 009d 18       		.byte	24
 718 009e D2       		.byte	-46
 719 009f 80       		.byte	-128
 720 00a0 D4       		.byte	-44
 721 00a1 07       		.byte	7
 722 00a2 D8       		.byte	-40
 723 00a3 04       		.byte	4
 724 00a4 D9       		.byte	-39
 725 00a5 04       		.byte	4
 726 00a6 DA       		.byte	-38
 727 00a7 04       		.byte	4
 728 00a8 DB       		.byte	-37
 729 00a9 04       		.byte	4
 730 00aa DF       		.byte	-33
 731 00ab 01       		.byte	1
 732 00ac E0       		.byte	-32
 733 00ad 40       		.byte	64
 734 00ae E2       		.byte	-30
 735 00af C0       		.byte	-64
 736 00b0 E4       		.byte	-28
ARM GAS  C:\Users\a83571\AppData\Local\Temp\cculJ8Gd.s 			page 26


 737 00b1 40       		.byte	64
 738 00b2 E5       		.byte	-27
 739 00b3 40       		.byte	64
 740 00b4 E6       		.byte	-26
 741 00b5 C0       		.byte	-64
 742 00b6 E8       		.byte	-24
 743 00b7 C0       		.byte	-64
 744 00b8 EA       		.byte	-22
 745 00b9 C0       		.byte	-64
 746 00ba EC       		.byte	-20
 747 00bb C0       		.byte	-64
 748 00bc EE       		.byte	-18
 749 00bd C0       		.byte	-64
 750 00be 05       		.byte	5
 751 00bf 08       		.byte	8
 752 00c0 0D       		.byte	13
 753 00c1 88       		.byte	-120
 754 00c2 16       		.byte	22
 755 00c3 08       		.byte	8
 756 00c4 17       		.byte	23
 757 00c5 40       		.byte	64
 758 00c6 1C       		.byte	28
 759 00c7 10       		.byte	16
 760 00c8 1D       		.byte	29
 761 00c9 08       		.byte	8
 762 00ca 1E       		.byte	30
 763 00cb 0A       		.byte	10
 764 00cc 1F       		.byte	31
 765 00cd 0A       		.byte	10
 766 00ce 25       		.byte	37
 767 00cf 10       		.byte	16
 768 00d0 26       		.byte	38
 769 00d1 40       		.byte	64
 770 00d2 27       		.byte	39
 771 00d3 A0       		.byte	-96
 772 00d4 2F       		.byte	47
 773 00d5 08       		.byte	8
 774 00d6 35       		.byte	53
 775 00d7 08       		.byte	8
 776 00d8 36       		.byte	54
 777 00d9 01       		.byte	1
 778 00da 37       		.byte	55
 779 00db 80       		.byte	-128
 780 00dc 3E       		.byte	62
 781 00dd 08       		.byte	8
 782 00de 3F       		.byte	63
 783 00df 22       		.byte	34
 784 00e0 40       		.byte	64
 785 00e1 10       		.byte	16
 786 00e2 42       		.byte	66
 787 00e3 80       		.byte	-128
 788 00e4 45       		.byte	69
 789 00e5 88       		.byte	-120
 790 00e6 4D       		.byte	77
 791 00e7 08       		.byte	8
 792 00e8 4F       		.byte	79
 793 00e9 01       		.byte	1
ARM GAS  C:\Users\a83571\AppData\Local\Temp\cculJ8Gd.s 			page 27


 794 00ea 55       		.byte	85
 795 00eb 80       		.byte	-128
 796 00ec 56       		.byte	86
 797 00ed 88       		.byte	-120
 798 00ee 57       		.byte	87
 799 00ef 11       		.byte	17
 800 00f0 5E       		.byte	94
 801 00f1 88       		.byte	-120
 802 00f2 5F       		.byte	95
 803 00f3 21       		.byte	33
 804 00f4 77       		.byte	119
 805 00f5 40       		.byte	64
 806 00f6 8D       		.byte	-115
 807 00f7 10       		.byte	16
 808 00f8 C0       		.byte	-64
 809 00f9 20       		.byte	32
 810 00fa C2       		.byte	-62
 811 00fb A0       		.byte	-96
 812 00fc C4       		.byte	-60
 813 00fd C0       		.byte	-64
 814 00fe CA       		.byte	-54
 815 00ff 20       		.byte	32
 816 0100 CC       		.byte	-52
 817 0101 D0       		.byte	-48
 818 0102 CE       		.byte	-50
 819 0103 E0       		.byte	-32
 820 0104 D0       		.byte	-48
 821 0105 53       		.byte	83
 822 0106 D6       		.byte	-42
 823 0107 F0       		.byte	-16
 824 0108 10       		.byte	16
 825 0109 02       		.byte	2
 826 010a 26       		.byte	38
 827 010b 03       		.byte	3
 828 010c 30       		.byte	48
 829 010d 01       		.byte	1
 830 010e 32       		.byte	50
 831 010f 02       		.byte	2
 832 0110 40       		.byte	64
 833 0111 60       		.byte	96
 834 0112 41       		.byte	65
 835 0113 05       		.byte	5
 836 0114 49       		.byte	73
 837 0115 FF       		.byte	-1
 838 0116 4A       		.byte	74
 839 0117 FF       		.byte	-1
 840 0118 4B       		.byte	75
 841 0119 FF       		.byte	-1
 842 011a 4D       		.byte	77
 843 011b A0       		.byte	-96
 844 011c 4F       		.byte	79
 845 011d 04       		.byte	4
 846 011e 50       		.byte	80
 847 011f 18       		.byte	24
 848 0120 58       		.byte	88
 849 0121 04       		.byte	4
 850 0122 5A       		.byte	90
ARM GAS  C:\Users\a83571\AppData\Local\Temp\cculJ8Gd.s 			page 28


 851 0123 04       		.byte	4
 852 0124 5F       		.byte	95
 853 0125 01       		.byte	1
 854 0126 60       		.byte	96
 855 0127 40       		.byte	64
 856 0128 62       		.byte	98
 857 0129 C0       		.byte	-64
 858 012a 64       		.byte	100
 859 012b 40       		.byte	64
 860 012c 65       		.byte	101
 861 012d 40       		.byte	64
 862 012e 66       		.byte	102
 863 012f C0       		.byte	-64
 864 0130 68       		.byte	104
 865 0131 C0       		.byte	-64
 866 0132 6A       		.byte	106
 867 0133 C0       		.byte	-64
 868 0134 6C       		.byte	108
 869 0135 C0       		.byte	-64
 870 0136 6E       		.byte	110
 871 0137 C0       		.byte	-64
 872 0138 86       		.byte	-122
 873 0139 06       		.byte	6
 874 013a 8E       		.byte	-114
 875 013b 02       		.byte	2
 876 013c 92       		.byte	-110
 877 013d 01       		.byte	1
 878 013e 99       		.byte	-103
 879 013f 01       		.byte	1
 880 0140 9D       		.byte	-99
 881 0141 01       		.byte	1
 882 0142 A0       		.byte	-96
 883 0143 0C       		.byte	12
 884 0144 A4       		.byte	-92
 885 0145 0C       		.byte	12
 886 0146 AD       		.byte	-83
 887 0147 01       		.byte	1
 888 0148 B0       		.byte	-80
 889 0149 08       		.byte	8
 890 014a B2       		.byte	-78
 891 014b 02       		.byte	2
 892 014c B4       		.byte	-76
 893 014d 01       		.byte	1
 894 014e B6       		.byte	-74
 895 014f 04       		.byte	4
 896 0150 B7       		.byte	-73
 897 0151 01       		.byte	1
 898 0152 B9       		.byte	-71
 899 0153 02       		.byte	2
 900 0154 BE       		.byte	-66
 901 0155 04       		.byte	4
 902 0156 BF       		.byte	-65
 903 0157 01       		.byte	1
 904 0158 C0       		.byte	-64
 905 0159 20       		.byte	32
 906 015a C1       		.byte	-63
 907 015b 05       		.byte	5
ARM GAS  C:\Users\a83571\AppData\Local\Temp\cculJ8Gd.s 			page 29


 908 015c C5       		.byte	-59
 909 015d D1       		.byte	-47
 910 015e C7       		.byte	-57
 911 015f 25       		.byte	37
 912 0160 C8       		.byte	-56
 913 0161 37       		.byte	55
 914 0162 C9       		.byte	-55
 915 0163 FF       		.byte	-1
 916 0164 CA       		.byte	-54
 917 0165 FF       		.byte	-1
 918 0166 CB       		.byte	-53
 919 0167 FF       		.byte	-1
 920 0168 CD       		.byte	-51
 921 0169 AF       		.byte	-81
 922 016a CE       		.byte	-50
 923 016b 0F       		.byte	15
 924 016c CF       		.byte	-49
 925 016d 04       		.byte	4
 926 016e D0       		.byte	-48
 927 016f 18       		.byte	24
 928 0170 D2       		.byte	-46
 929 0171 80       		.byte	-128
 930 0172 D4       		.byte	-44
 931 0173 07       		.byte	7
 932 0174 D8       		.byte	-40
 933 0175 04       		.byte	4
 934 0176 D9       		.byte	-39
 935 0177 04       		.byte	4
 936 0178 DA       		.byte	-38
 937 0179 04       		.byte	4
 938 017a DB       		.byte	-37
 939 017b 04       		.byte	4
 940 017c DF       		.byte	-33
 941 017d 01       		.byte	1
 942 017e E0       		.byte	-32
 943 017f 40       		.byte	64
 944 0180 E2       		.byte	-30
 945 0181 C0       		.byte	-64
 946 0182 E4       		.byte	-28
 947 0183 40       		.byte	64
 948 0184 E5       		.byte	-27
 949 0185 40       		.byte	64
 950 0186 E6       		.byte	-26
 951 0187 C0       		.byte	-64
 952 0188 E8       		.byte	-24
 953 0189 C0       		.byte	-64
 954 018a EA       		.byte	-22
 955 018b C0       		.byte	-64
 956 018c EC       		.byte	-20
 957 018d C0       		.byte	-64
 958 018e EE       		.byte	-18
 959 018f C0       		.byte	-64
 960 0190 00       		.byte	0
 961 0191 04       		.byte	4
 962 0192 02       		.byte	2
 963 0193 02       		.byte	2
 964 0194 0A       		.byte	10
ARM GAS  C:\Users\a83571\AppData\Local\Temp\cculJ8Gd.s 			page 30


 965 0195 40       		.byte	64
 966 0196 0E       		.byte	14
 967 0197 80       		.byte	-128
 968 0198 10       		.byte	16
 969 0199 A0       		.byte	-96
 970 019a 15       		.byte	21
 971 019b 08       		.byte	8
 972 019c 18       		.byte	24
 973 019d 04       		.byte	4
 974 019e 19       		.byte	25
 975 019f 08       		.byte	8
 976 01a0 1B       		.byte	27
 977 01a1 91       		.byte	-111
 978 01a2 1E       		.byte	30
 979 01a3 90       		.byte	-112
 980 01a4 21       		.byte	33
 981 01a5 02       		.byte	2
 982 01a6 22       		.byte	34
 983 01a7 40       		.byte	64
 984 01a8 2B       		.byte	43
 985 01a9 01       		.byte	1
 986 01aa 30       		.byte	48
 987 01ab A0       		.byte	-96
 988 01ac 40       		.byte	64
 989 01ad 04       		.byte	4
 990 01ae 48       		.byte	72
 991 01af 20       		.byte	32
 992 01b0 49       		.byte	73
 993 01b1 01       		.byte	1
 994 01b2 4A       		.byte	74
 995 01b3 02       		.byte	2
 996 01b4 4E       		.byte	78
 997 01b5 02       		.byte	2
 998 01b6 4F       		.byte	79
 999 01b7 20       		.byte	32
 1000 01b8 50       		.byte	80
 1001 01b9 80       		.byte	-128
 1002 01ba 51       		.byte	81
 1003 01bb 04       		.byte	4
 1004 01bc 52       		.byte	82
 1005 01bd 02       		.byte	2
 1006 01be 59       		.byte	89
 1007 01bf 09       		.byte	9
 1008 01c0 5A       		.byte	90
 1009 01c1 90       		.byte	-112
 1010 01c2 72       		.byte	114
 1011 01c3 40       		.byte	64
 1012 01c4 85       		.byte	-123
 1013 01c5 02       		.byte	2
 1014 01c6 87       		.byte	-121
 1015 01c7 80       		.byte	-128
 1016 01c8 B3       		.byte	-77
 1017 01c9 02       		.byte	2
 1018 01ca C0       		.byte	-64
 1019 01cb 05       		.byte	5
 1020 01cc C2       		.byte	-62
 1021 01cd 18       		.byte	24
ARM GAS  C:\Users\a83571\AppData\Local\Temp\cculJ8Gd.s 			page 31


 1022 01ce C4       		.byte	-60
 1023 01cf 2C       		.byte	44
 1024 01d0 CA       		.byte	-54
 1025 01d1 08       		.byte	8
 1026 01d2 CC       		.byte	-52
 1027 01d3 0C       		.byte	12
 1028 01d4 D0       		.byte	-48
 1029 01d5 04       		.byte	4
 1030 01d6 D2       		.byte	-46
 1031 01d7 38       		.byte	56
 1032 01d8 D6       		.byte	-42
 1033 01d9 0F       		.byte	15
 1034 01da E4       		.byte	-28
 1035 01db 08       		.byte	8
 1036 01dc 3B       		.byte	59
 1037 01dd 04       		.byte	4
 1038 01de 3F       		.byte	63
 1039 01df 04       		.byte	4
 1040 01e0 87       		.byte	-121
 1041 01e1 04       		.byte	4
 1042 01e2 CE       		.byte	-50
 1043 01e3 C0       		.byte	-64
 1044 01e4 E2       		.byte	-30
 1045 01e5 40       		.byte	64
 1046 01e6 5E       		.byte	94
 1047 01e7 01       		.byte	1
 1048 01e8 8C       		.byte	-116
 1049 01e9 01       		.byte	1
 1050 01ea D6       		.byte	-42
 1051 01eb 01       		.byte	1
 1052 01ec E4       		.byte	-28
 1053 01ed 08       		.byte	8
 1054 01ee 5C       		.byte	92
 1055 01ef 08       		.byte	8
 1056 01f0 60       		.byte	96
 1057 01f1 01       		.byte	1
 1058 01f2 84       		.byte	-124
 1059 01f3 08       		.byte	8
 1060 01f4 90       		.byte	-112
 1061 01f5 01       		.byte	1
 1062 01f6 B2       		.byte	-78
 1063 01f7 01       		.byte	1
 1064 01f8 D6       		.byte	-42
 1065 01f9 03       		.byte	3
 1066 01fa EC       		.byte	-20
 1067 01fb 01       		.byte	1
 1068 01fc 01       		.byte	1
 1069 01fd 01       		.byte	1
 1070 01fe 10       		.byte	16
 1071 01ff 01       		.byte	1
 1072              		.text
 1073              	.Letext0:
 1074              		.file 2 "c:\\program files (x86)\\cypress\\psoc creator\\4.0\\psoc creator\\import\\gnu\\arm\\4.9.
 1075              		.file 3 "Generated_Source\\PSoC4\\cytypes.h"
 1076              		.file 4 "Generated_Source\\PSoC4\\CyLib.h"
 1077              		.file 5 "Generated_Source\\PSoC4\\CyLFClk.h"