ARM GAS  C:\Users\a83571\AppData\Local\Temp\ccil1TW5.s 			page 1


   1              		.cpu cortex-m0
   2              		.fpu softvfp
   3              		.eabi_attribute 20, 1
   4              		.eabi_attribute 21, 1
   5              		.eabi_attribute 23, 3
   6              		.eabi_attribute 24, 1
   7              		.eabi_attribute 25, 1
   8              		.eabi_attribute 26, 1
   9              		.eabi_attribute 30, 1
  10              		.eabi_attribute 34, 0
  11              		.eabi_attribute 18, 4
  12              		.code	16
  13              		.file	"main.c"
  14              		.text
  15              	.Ltext0:
  16              		.cfi_sections	.debug_frame
  17              		.section	.text.StackEventHandler,"ax",%progbits
  18              		.align	2
  19              		.global	StackEventHandler
  20              		.code	16
  21              		.thumb_func
  22              		.type	StackEventHandler, %function
  23              	StackEventHandler:
  24              	.LFB38:
  25              		.file 1 "main.c"
   1:main.c        **** /* ========================================
   2:main.c        ****  *
   3:main.c        ****  * Copyright YOUR COMPANY, THE YEAR
   4:main.c        ****  * All Rights Reserved
   5:main.c        ****  * UNPUBLISHED, LICENSED SOFTWARE.
   6:main.c        ****  *
   7:main.c        ****  * CONFIDENTIAL AND PROPRIETARY INFORMATION
   8:main.c        ****  * WHICH IS THE PROPERTY OF your company.
   9:main.c        ****  *
  10:main.c        ****  * ========================================
  11:main.c        **** */
  12:main.c        **** #include <project.h>
  13:main.c        **** #include "RGB.h"
  14:main.c        **** #include "Slider.h"
  15:main.c        **** #include "ble_event.h"
  16:main.c        **** 
  17:main.c        **** void StackEventHandler( uint32 eventCode, void *eventParam );
  18:main.c        **** 
  19:main.c        **** int main()
  20:main.c        **** {
  21:main.c        ****     HUEVALUE hueData = {64, 128, 255, 0};
  22:main.c        ****     uint16 sliderValue;
  23:main.c        ****     CyGlobalIntEnable;   /* Enable global interrupts */
  24:main.c        ****     
  25:main.c        ****     /* Place your initialization/startup code here (e.g. MyInst_Start()) */
  26:main.c        **** 
  27:main.c        ****     CyBle_Start( StackEventHandler );
  28:main.c        ****     RGB_Init();
  29:main.c        ****     RGB_SetHue(hueData);
  30:main.c        ****     Slider_Init();
  31:main.c        ****     for(;;)
  32:main.c        ****     {
ARM GAS  C:\Users\a83571\AppData\Local\Temp\ccil1TW5.s 			page 2


  33:main.c        ****         /* Place your application code here */
  34:main.c        ****         CyBle_ProcessEvents();
  35:main.c        ****         sliderValue = Slider_GetValue(); 
  36:main.c        ****         if (sliderValue != 0xFFFF)
  37:main.c        ****         {            
  38:main.c        ****             hueData.intensity = (uint8)sliderValue;
  39:main.c        ****             RGB_SetHue(hueData);
  40:main.c        ****         }
  41:main.c        ****     }
  42:main.c        **** }
  43:main.c        **** 
  44:main.c        **** void StackEventHandler( uint32 eventCode, void *eventParam )
  45:main.c        **** {
  26              		.loc 1 45 0
  27              		.cfi_startproc
  28              	.LVL0:
  29 0000 08B5     		push	{r3, lr}
  30              		.cfi_def_cfa_offset 8
  31              		.cfi_offset 3, -8
  32              		.cfi_offset 14, -4
  46:main.c        ****     switch( eventCode )
  33              		.loc 1 46 0
  34 0002 2728     		cmp	r0, #39
  35 0004 0CD0     		beq	.L3
  36 0006 02D8     		bhi	.L4
  37 0008 0128     		cmp	r0, #1
  38 000a 05D0     		beq	.L5
  39 000c 11E0     		b	.L1
  40              	.L4:
  41 000e 2828     		cmp	r0, #40
  42 0010 09D0     		beq	.L6
  43 0012 4C28     		cmp	r0, #76
  44 0014 0AD0     		beq	.L7
  45 0016 0CE0     		b	.L1
  46              	.L5:
  47:main.c        ****     {
  48:main.c        ****         /* Generic events */
  49:main.c        **** 
  50:main.c        ****         case CYBLE_EVT_HOST_INVALID:
  51:main.c        ****         break;
  52:main.c        **** 
  53:main.c        ****         case CYBLE_EVT_STACK_ON:
  54:main.c        ****             CyBle_GappStartAdvertisement( CYBLE_ADVERTISING_FAST );
  47              		.loc 1 54 0
  48 0018 0020     		mov	r0, #0
  49              	.LVL1:
  50 001a FFF7FEFF 		bl	CyBle_GappStartAdvertisement
  51              	.LVL2:
  55:main.c        ****         break;
  52              		.loc 1 55 0
  53 001e 08E0     		b	.L1
  54              	.LVL3:
  55              	.L3:
  56:main.c        **** 
  57:main.c        ****         case CYBLE_EVT_TIMEOUT:
  58:main.c        ****         break;
  59:main.c        **** 
ARM GAS  C:\Users\a83571\AppData\Local\Temp\ccil1TW5.s 			page 3


  60:main.c        ****         case CYBLE_EVT_HARDWARE_ERROR:
  61:main.c        ****         break;
  62:main.c        **** 
  63:main.c        ****         case CYBLE_EVT_HCI_STATUS:
  64:main.c        ****         break;
  65:main.c        **** 
  66:main.c        ****         case CYBLE_EVT_STACK_BUSY_STATUS:
  67:main.c        ****         break;
  68:main.c        **** 
  69:main.c        ****         case CYBLE_EVT_PENDING_FLASH_WRITE:
  70:main.c        ****         break;
  71:main.c        **** 
  72:main.c        **** 
  73:main.c        ****         /* GAP events */
  74:main.c        **** 
  75:main.c        ****         case CYBLE_EVT_GAP_AUTH_REQ:
  76:main.c        ****         break;
  77:main.c        **** 
  78:main.c        ****         case CYBLE_EVT_GAP_PASSKEY_ENTRY_REQUEST:
  79:main.c        ****         break;
  80:main.c        **** 
  81:main.c        ****         case CYBLE_EVT_GAP_PASSKEY_DISPLAY_REQUEST:
  82:main.c        ****         break;
  83:main.c        **** 
  84:main.c        ****         case CYBLE_EVT_GAP_AUTH_COMPLETE:
  85:main.c        ****         break;
  86:main.c        **** 
  87:main.c        ****         case CYBLE_EVT_GAP_AUTH_FAILED:
  88:main.c        ****         break;
  89:main.c        **** 
  90:main.c        ****         case CYBLE_EVT_GAP_DEVICE_CONNECTED:
  91:main.c        ****             CyBle_GappStopAdvertisement();
  56              		.loc 1 91 0
  57 0020 FFF7FEFF 		bl	CyBle_GappStopAdvertisement
  58              	.LVL4:
  92:main.c        ****         break;
  59              		.loc 1 92 0
  60 0024 05E0     		b	.L1
  61              	.LVL5:
  62              	.L6:
  93:main.c        **** 
  94:main.c        ****         case CYBLE_EVT_GAP_DEVICE_DISCONNECTED:
  95:main.c        ****            Ble_ProcessGappDisconnectedEvent();
  63              		.loc 1 95 0
  64 0026 FFF7FEFF 		bl	Ble_ProcessGappDisconnectedEvent
  65              	.LVL6:
  96:main.c        ****         break;
  66              		.loc 1 96 0
  67 002a 02E0     		b	.L1
  68              	.LVL7:
  69              	.L7:
  97:main.c        **** 
  98:main.c        ****         case CYBLE_EVT_GAP_ENCRYPT_CHANGE:
  99:main.c        ****         break;
 100:main.c        **** 
 101:main.c        ****         case CYBLE_EVT_GAP_CONNECTION_UPDATE_COMPLETE:
 102:main.c        ****         break;
ARM GAS  C:\Users\a83571\AppData\Local\Temp\ccil1TW5.s 			page 4


 103:main.c        **** 
 104:main.c        ****         case CYBLE_EVT_GAP_KEYINFO_EXCHNGE_CMPLT:
 105:main.c        ****         break;
 106:main.c        **** 
 107:main.c        **** 
 108:main.c        ****         /* GAP Peripheral events */
 109:main.c        **** 
 110:main.c        ****         case CYBLE_EVT_GAPP_ADVERTISEMENT_START_STOP:
 111:main.c        ****         break;
 112:main.c        **** 
 113:main.c        **** 
 114:main.c        ****         /* GAP Central events */
 115:main.c        **** 
 116:main.c        ****         case CYBLE_EVT_GAPC_SCAN_PROGRESS_RESULT:
 117:main.c        ****         break;
 118:main.c        **** 
 119:main.c        ****         case CYBLE_EVT_GAPC_SCAN_START_STOP:
 120:main.c        ****         break;
 121:main.c        **** 
 122:main.c        **** 
 123:main.c        ****         /* GATT events */
 124:main.c        **** 
 125:main.c        ****         case CYBLE_EVT_GATT_CONNECT_IND:
 126:main.c        ****         break;
 127:main.c        **** 
 128:main.c        ****         case CYBLE_EVT_GATT_DISCONNECT_IND:
 129:main.c        ****         break;
 130:main.c        **** 
 131:main.c        **** 
 132:main.c        ****         /* GATT Client events (CYBLE_EVENT_T) */
 133:main.c        **** 
 134:main.c        ****         case CYBLE_EVT_GATTC_ERROR_RSP:
 135:main.c        ****         break;
 136:main.c        **** 
 137:main.c        ****         case CYBLE_EVT_GATTC_XCHNG_MTU_RSP:
 138:main.c        ****         break;
 139:main.c        **** 
 140:main.c        ****         case CYBLE_EVT_GATTC_READ_BY_GROUP_TYPE_RSP:
 141:main.c        ****         break;
 142:main.c        **** 
 143:main.c        ****         case CYBLE_EVT_GATTC_READ_BY_TYPE_RSP:
 144:main.c        ****         break;
 145:main.c        **** 
 146:main.c        ****         case CYBLE_EVT_GATTC_FIND_INFO_RSP:
 147:main.c        ****         break;
 148:main.c        **** 
 149:main.c        ****         case CYBLE_EVT_GATTC_FIND_BY_TYPE_VALUE_RSP:
 150:main.c        ****         break;
 151:main.c        **** 
 152:main.c        ****         case CYBLE_EVT_GATTC_READ_RSP:
 153:main.c        ****         break;
 154:main.c        **** 
 155:main.c        ****         case CYBLE_EVT_GATTC_READ_BLOB_RSP:
 156:main.c        ****         break;
 157:main.c        **** 
 158:main.c        ****         case CYBLE_EVT_GATTC_READ_MULTI_RSP:
 159:main.c        ****         break;
ARM GAS  C:\Users\a83571\AppData\Local\Temp\ccil1TW5.s 			page 5


 160:main.c        **** 
 161:main.c        ****         case CYBLE_EVT_GATTC_WRITE_RSP:
 162:main.c        ****         break;
 163:main.c        **** 
 164:main.c        ****         case CYBLE_EVT_GATTC_EXEC_WRITE_RSP:
 165:main.c        ****         break;
 166:main.c        **** 
 167:main.c        ****         case CYBLE_EVT_GATTC_HANDLE_VALUE_NTF:
 168:main.c        ****         break;
 169:main.c        **** 
 170:main.c        ****         case CYBLE_EVT_GATTC_HANDLE_VALUE_IND:
 171:main.c        ****         break;
 172:main.c        **** 
 173:main.c        **** 
 174:main.c        ****         /* GATT Client events (CYBLE_EVT_T) */
 175:main.c        **** 
 176:main.c        ****         case CYBLE_EVT_GATTC_INDICATION:
 177:main.c        ****         break;
 178:main.c        **** 
 179:main.c        ****         case CYBLE_EVT_GATTC_SRVC_DISCOVERY_FAILED:
 180:main.c        ****         break;
 181:main.c        **** 
 182:main.c        ****         case CYBLE_EVT_GATTC_INCL_DISCOVERY_FAILED:
 183:main.c        ****         break;
 184:main.c        **** 
 185:main.c        ****         case CYBLE_EVT_GATTC_CHAR_DISCOVERY_FAILED:
 186:main.c        ****         break;
 187:main.c        **** 
 188:main.c        ****         case CYBLE_EVT_GATTC_DESCR_DISCOVERY_FAILED:
 189:main.c        ****         break;
 190:main.c        **** 
 191:main.c        ****         case CYBLE_EVT_GATTC_SRVC_DUPLICATION:
 192:main.c        ****         break;
 193:main.c        **** 
 194:main.c        ****         case CYBLE_EVT_GATTC_CHAR_DUPLICATION:
 195:main.c        ****         break;
 196:main.c        **** 
 197:main.c        ****         case CYBLE_EVT_GATTC_DESCR_DUPLICATION:
 198:main.c        ****         break;
 199:main.c        **** 
 200:main.c        ****         case CYBLE_EVT_GATTC_SRVC_DISCOVERY_COMPLETE:
 201:main.c        ****         break;
 202:main.c        **** 
 203:main.c        ****         case CYBLE_EVT_GATTC_INCL_DISCOVERY_COMPLETE:
 204:main.c        ****         break;
 205:main.c        **** 
 206:main.c        ****         case CYBLE_EVT_GATTC_CHAR_DISCOVERY_COMPLETE:
 207:main.c        ****         break;
 208:main.c        **** 
 209:main.c        ****         case CYBLE_EVT_GATTC_DISCOVERY_COMPLETE:
 210:main.c        ****         break;
 211:main.c        **** 
 212:main.c        **** 
 213:main.c        ****         /* GATT Server events (CYBLE_EVENT_T) */
 214:main.c        **** 
 215:main.c        ****         case CYBLE_EVT_GATTS_XCNHG_MTU_REQ:
 216:main.c        ****         break;
ARM GAS  C:\Users\a83571\AppData\Local\Temp\ccil1TW5.s 			page 6


 217:main.c        **** 
 218:main.c        ****         case CYBLE_EVT_GATTS_WRITE_REQ:
 219:main.c        ****             Ble_ProcessGattWriteEvent(eventParam);
  70              		.loc 1 219 0
  71 002c 081C     		mov	r0, r1
  72              	.LVL8:
  73 002e FFF7FEFF 		bl	Ble_ProcessGattWriteEvent
  74              	.LVL9:
  75              	.L1:
 220:main.c        ****         break;
 221:main.c        **** 
 222:main.c        ****         case CYBLE_EVT_GATTS_WRITE_CMD_REQ:
 223:main.c        ****         
 224:main.c        ****         break;
 225:main.c        **** 
 226:main.c        ****         case CYBLE_EVT_GATTS_PREP_WRITE_REQ:
 227:main.c        ****         break;
 228:main.c        **** 
 229:main.c        ****         case CYBLE_EVT_GATTS_EXEC_WRITE_REQ:
 230:main.c        ****         break;
 231:main.c        **** 
 232:main.c        ****         case CYBLE_EVT_GATTS_HANDLE_VALUE_CNF:
 233:main.c        ****         break;
 234:main.c        **** 
 235:main.c        ****         case CYBLE_EVT_GATTS_DATA_SIGNED_CMD_REQ:
 236:main.c        ****         break;
 237:main.c        **** 
 238:main.c        **** 
 239:main.c        ****         /* GATT Server events (CYBLE_EVT_T) */
 240:main.c        **** 
 241:main.c        ****         case CYBLE_EVT_GATTS_INDICATION_ENABLED:
 242:main.c        ****         break;
 243:main.c        **** 
 244:main.c        ****         case CYBLE_EVT_GATTS_INDICATION_DISABLED:
 245:main.c        ****         break;
 246:main.c        **** 
 247:main.c        **** 
 248:main.c        ****         /* L2CAP events */
 249:main.c        **** 
 250:main.c        ****         case CYBLE_EVT_L2CAP_CONN_PARAM_UPDATE_REQ:
 251:main.c        ****         break;
 252:main.c        **** 
 253:main.c        ****         case CYBLE_EVT_L2CAP_CONN_PARAM_UPDATE_RSP:
 254:main.c        ****         break;
 255:main.c        **** 
 256:main.c        ****         case CYBLE_EVT_L2CAP_COMMAND_REJ:
 257:main.c        ****         break;
 258:main.c        **** 
 259:main.c        ****         case CYBLE_EVT_L2CAP_CBFC_CONN_IND:
 260:main.c        ****         break;
 261:main.c        **** 
 262:main.c        ****         case CYBLE_EVT_L2CAP_CBFC_CONN_CNF:
 263:main.c        ****         break;
 264:main.c        **** 
 265:main.c        ****         case CYBLE_EVT_L2CAP_CBFC_DISCONN_IND:
 266:main.c        ****         break;
 267:main.c        **** 
ARM GAS  C:\Users\a83571\AppData\Local\Temp\ccil1TW5.s 			page 7


 268:main.c        ****         case CYBLE_EVT_L2CAP_CBFC_DISCONN_CNF:
 269:main.c        ****         break;
 270:main.c        **** 
 271:main.c        ****         case CYBLE_EVT_L2CAP_CBFC_DATA_READ:
 272:main.c        ****         break;
 273:main.c        **** 
 274:main.c        ****         case CYBLE_EVT_L2CAP_CBFC_RX_CREDIT_IND:
 275:main.c        ****         break;
 276:main.c        **** 
 277:main.c        ****         case CYBLE_EVT_L2CAP_CBFC_TX_CREDIT_IND:
 278:main.c        ****         break;
 279:main.c        **** 
 280:main.c        ****         case CYBLE_EVT_L2CAP_CBFC_DATA_WRITE_IND:
 281:main.c        ****         break;
 282:main.c        **** 
 283:main.c        **** 
 284:main.c        ****         /* default catch-all case */
 285:main.c        **** 
 286:main.c        ****         default:
 287:main.c        ****         break;
 288:main.c        ****     }
 289:main.c        **** }
  76              		.loc 1 289 0
  77              		@ sp needed
  78 0032 08BD     		pop	{r3, pc}
  79              		.cfi_endproc
  80              	.LFE38:
  81              		.size	StackEventHandler, .-StackEventHandler
  82              		.section	.text.main,"ax",%progbits
  83              		.align	2
  84              		.global	main
  85              		.code	16
  86              		.thumb_func
  87              		.type	main, %function
  88              	main:
  89              	.LFB37:
  20:main.c        ****     HUEVALUE hueData = {64, 128, 255, 0};
  90              		.loc 1 20 0
  91              		.cfi_startproc
  92 0000 00B5     		push	{lr}
  93              		.cfi_def_cfa_offset 4
  94              		.cfi_offset 14, -4
  95 0002 83B0     		sub	sp, sp, #12
  96              		.cfi_def_cfa_offset 16
  21:main.c        ****     uint16 sliderValue;
  97              		.loc 1 21 0
  98 0004 01A8     		add	r0, sp, #4
  99 0006 0E49     		ldr	r1, .L11
 100 0008 0422     		mov	r2, #4
 101 000a FFF7FEFF 		bl	memcpy
 102              	.LVL10:
  23:main.c        ****     
 103              		.loc 1 23 0
 104              	@ 23 "main.c" 1
 105 000e 62B6     		CPSIE   i
 106              	@ 0 "" 2
  27:main.c        ****     RGB_Init();
ARM GAS  C:\Users\a83571\AppData\Local\Temp\ccil1TW5.s 			page 8


 107              		.loc 1 27 0
 108              		.code	16
 109 0010 0C48     		ldr	r0, .L11+4
 110 0012 FFF7FEFF 		bl	CyBle_Start
 111              	.LVL11:
  28:main.c        ****     RGB_SetHue(hueData);
 112              		.loc 1 28 0
 113 0016 FFF7FEFF 		bl	RGB_Init
 114              	.LVL12:
  29:main.c        ****     Slider_Init();
 115              		.loc 1 29 0
 116 001a 0198     		ldr	r0, [sp, #4]
 117 001c FFF7FEFF 		bl	RGB_SetHue
 118              	.LVL13:
  30:main.c        ****     for(;;)
 119              		.loc 1 30 0
 120 0020 FFF7FEFF 		bl	Slider_Init
 121              	.LVL14:
 122              	.L9:
  34:main.c        ****         sliderValue = Slider_GetValue(); 
 123              		.loc 1 34 0
 124 0024 FFF7FEFF 		bl	CyBle_ProcessEvents
 125              	.LVL15:
  35:main.c        ****         if (sliderValue != 0xFFFF)
 126              		.loc 1 35 0
 127 0028 FFF7FEFF 		bl	Slider_GetValue
 128              	.LVL16:
  36:main.c        ****         {            
 129              		.loc 1 36 0
 130 002c 064B     		ldr	r3, .L11+8
 131 002e 9842     		cmp	r0, r3
 132 0030 F8D0     		beq	.L9
  38:main.c        ****             RGB_SetHue(hueData);
 133              		.loc 1 38 0
 134 0032 01AB     		add	r3, sp, #4
 135 0034 D870     		strb	r0, [r3, #3]
  39:main.c        ****         }
 136              		.loc 1 39 0
 137 0036 0198     		ldr	r0, [sp, #4]
 138              	.LVL17:
 139 0038 FFF7FEFF 		bl	RGB_SetHue
 140              	.LVL18:
 141 003c F2E7     		b	.L9
 142              	.L12:
 143 003e C046     		.align	2
 144              	.L11:
 145 0040 00000000 		.word	.LANCHOR0
 146 0044 00000000 		.word	StackEventHandler
 147 0048 FFFF0000 		.word	65535
 148              		.cfi_endproc
 149              	.LFE37:
 150              		.size	main, .-main
 151              		.section	.rodata
 152              		.align	2
 153              		.set	.LANCHOR0,. + 0
 154              	.LC0:
 155 0000 40       		.byte	64
ARM GAS  C:\Users\a83571\AppData\Local\Temp\ccil1TW5.s 			page 9


 156 0001 80       		.byte	-128
 157 0002 FF       		.byte	-1
 158 0003 00       		.byte	0
 159              		.text
 160              	.Letext0:
 161              		.file 2 "Generated_Source\\PSoC4/cytypes.h"
 162              		.file 3 "Generated_Source\\PSoC4/BLE_Stack.h"
 163              		.file 4 "Generated_Source\\PSoC4/BLE.h"
 164              		.file 5 "Generated_Source\\PSoC4/BLE_eventHandler.h"
 165              		.file 6 "RGB.h"
 166              		.file 7 "ble_event.h"
 167              		.file 8 "Slider.h"