ARM GAS  C:\Users\a83571\AppData\Local\Temp\ccEBNeug.s 			page 1


   1              		.cpu cortex-m0
   2              		.fpu softvfp
   3              		.eabi_attribute 20, 1
   4              		.eabi_attribute 21, 1
   5              		.eabi_attribute 23, 3
   6              		.eabi_attribute 24, 1
   7              		.eabi_attribute 25, 1
   8              		.eabi_attribute 26, 1
   9              		.eabi_attribute 30, 1
  10              		.eabi_attribute 34, 0
  11              		.eabi_attribute 18, 4
  12              		.code	16
  13              		.file	"PWM_2.c"
  14              		.text
  15              	.Ltext0:
  16              		.cfi_sections	.debug_frame
  17              		.section	.text.PWM_2_Enable,"ax",%progbits
  18              		.align	2
  19              		.global	PWM_2_Enable
  20              		.code	16
  21              		.thumb_func
  22              		.type	PWM_2_Enable, %function
  23              	PWM_2_Enable:
  24              	.LFB4:
  25              		.file 1 "Generated_Source\\PSoC4\\PWM_2.c"
   1:Generated_Source\PSoC4/PWM_2.c **** /*******************************************************************************
   2:Generated_Source\PSoC4/PWM_2.c **** * File Name: PWM_2.c
   3:Generated_Source\PSoC4/PWM_2.c **** * Version 3.30
   4:Generated_Source\PSoC4/PWM_2.c **** *
   5:Generated_Source\PSoC4/PWM_2.c **** * Description:
   6:Generated_Source\PSoC4/PWM_2.c **** *  The PWM User Module consist of an 8 or 16-bit counter with two 8 or 16-bit
   7:Generated_Source\PSoC4/PWM_2.c **** *  comparitors. Each instance of this user module is capable of generating
   8:Generated_Source\PSoC4/PWM_2.c **** *  two PWM outputs with the same period. The pulse width is selectable between
   9:Generated_Source\PSoC4/PWM_2.c **** *  1 and 255/65535. The period is selectable between 2 and 255/65536 clocks.
  10:Generated_Source\PSoC4/PWM_2.c **** *  The compare value output may be configured to be active when the present
  11:Generated_Source\PSoC4/PWM_2.c **** *  counter is less than or less than/equal to the compare value.
  12:Generated_Source\PSoC4/PWM_2.c **** *  A terminal count output is also provided. It generates a pulse one clock
  13:Generated_Source\PSoC4/PWM_2.c **** *  width wide when the counter is equal to zero.
  14:Generated_Source\PSoC4/PWM_2.c **** *
  15:Generated_Source\PSoC4/PWM_2.c **** * Note:
  16:Generated_Source\PSoC4/PWM_2.c **** *
  17:Generated_Source\PSoC4/PWM_2.c **** *******************************************************************************
  18:Generated_Source\PSoC4/PWM_2.c **** * Copyright 2008-2014, Cypress Semiconductor Corporation.  All rights reserved.
  19:Generated_Source\PSoC4/PWM_2.c **** * You may use this file only in accordance with the license, terms, conditions,
  20:Generated_Source\PSoC4/PWM_2.c **** * disclaimers, and limitations in the end user license agreement accompanying
  21:Generated_Source\PSoC4/PWM_2.c **** * the software package with which this file was provided.
  22:Generated_Source\PSoC4/PWM_2.c **** ********************************************************************************/
  23:Generated_Source\PSoC4/PWM_2.c **** 
  24:Generated_Source\PSoC4/PWM_2.c **** #include "PWM_2.h"
  25:Generated_Source\PSoC4/PWM_2.c **** 
  26:Generated_Source\PSoC4/PWM_2.c **** /* Error message for removed <resource> through optimization */
  27:Generated_Source\PSoC4/PWM_2.c **** #ifdef PWM_2_PWMUDB_genblk1_ctrlreg__REMOVED
  28:Generated_Source\PSoC4/PWM_2.c ****     #error PWM_v3_30 detected with a constant 0 for the enable or \
  29:Generated_Source\PSoC4/PWM_2.c ****          constant 1 for reset. This will prevent the component from operating.
  30:Generated_Source\PSoC4/PWM_2.c **** #endif /* PWM_2_PWMUDB_genblk1_ctrlreg__REMOVED */
  31:Generated_Source\PSoC4/PWM_2.c **** 
  32:Generated_Source\PSoC4/PWM_2.c **** uint8 PWM_2_initVar = 0u;
ARM GAS  C:\Users\a83571\AppData\Local\Temp\ccEBNeug.s 			page 2


  33:Generated_Source\PSoC4/PWM_2.c **** 
  34:Generated_Source\PSoC4/PWM_2.c **** 
  35:Generated_Source\PSoC4/PWM_2.c **** /*******************************************************************************
  36:Generated_Source\PSoC4/PWM_2.c **** * Function Name: PWM_2_Start
  37:Generated_Source\PSoC4/PWM_2.c **** ********************************************************************************
  38:Generated_Source\PSoC4/PWM_2.c **** *
  39:Generated_Source\PSoC4/PWM_2.c **** * Summary:
  40:Generated_Source\PSoC4/PWM_2.c **** *  The start function initializes the pwm with the default values, the
  41:Generated_Source\PSoC4/PWM_2.c **** *  enables the counter to begin counting.  It does not enable interrupts,
  42:Generated_Source\PSoC4/PWM_2.c **** *  the EnableInt command should be called if interrupt generation is required.
  43:Generated_Source\PSoC4/PWM_2.c **** *
  44:Generated_Source\PSoC4/PWM_2.c **** * Parameters:
  45:Generated_Source\PSoC4/PWM_2.c **** *  None
  46:Generated_Source\PSoC4/PWM_2.c **** *
  47:Generated_Source\PSoC4/PWM_2.c **** * Return:
  48:Generated_Source\PSoC4/PWM_2.c **** *  None
  49:Generated_Source\PSoC4/PWM_2.c **** *
  50:Generated_Source\PSoC4/PWM_2.c **** * Global variables:
  51:Generated_Source\PSoC4/PWM_2.c **** *  PWM_2_initVar: Is modified when this function is called for the
  52:Generated_Source\PSoC4/PWM_2.c **** *   first time. Is used to ensure that initialization happens only once.
  53:Generated_Source\PSoC4/PWM_2.c **** *
  54:Generated_Source\PSoC4/PWM_2.c **** *******************************************************************************/
  55:Generated_Source\PSoC4/PWM_2.c **** void PWM_2_Start(void) 
  56:Generated_Source\PSoC4/PWM_2.c **** {
  57:Generated_Source\PSoC4/PWM_2.c ****     /* If not Initialized then initialize all required hardware and software */
  58:Generated_Source\PSoC4/PWM_2.c ****     if(PWM_2_initVar == 0u)
  59:Generated_Source\PSoC4/PWM_2.c ****     {
  60:Generated_Source\PSoC4/PWM_2.c ****         PWM_2_Init();
  61:Generated_Source\PSoC4/PWM_2.c ****         PWM_2_initVar = 1u;
  62:Generated_Source\PSoC4/PWM_2.c ****     }
  63:Generated_Source\PSoC4/PWM_2.c ****     PWM_2_Enable();
  64:Generated_Source\PSoC4/PWM_2.c **** 
  65:Generated_Source\PSoC4/PWM_2.c **** }
  66:Generated_Source\PSoC4/PWM_2.c **** 
  67:Generated_Source\PSoC4/PWM_2.c **** 
  68:Generated_Source\PSoC4/PWM_2.c **** /*******************************************************************************
  69:Generated_Source\PSoC4/PWM_2.c **** * Function Name: PWM_2_Init
  70:Generated_Source\PSoC4/PWM_2.c **** ********************************************************************************
  71:Generated_Source\PSoC4/PWM_2.c **** *
  72:Generated_Source\PSoC4/PWM_2.c **** * Summary:
  73:Generated_Source\PSoC4/PWM_2.c **** *  Initialize component's parameters to the parameters set by user in the
  74:Generated_Source\PSoC4/PWM_2.c **** *  customizer of the component placed onto schematic. Usually called in
  75:Generated_Source\PSoC4/PWM_2.c **** *  PWM_2_Start().
  76:Generated_Source\PSoC4/PWM_2.c **** *
  77:Generated_Source\PSoC4/PWM_2.c **** * Parameters:
  78:Generated_Source\PSoC4/PWM_2.c **** *  None
  79:Generated_Source\PSoC4/PWM_2.c **** *
  80:Generated_Source\PSoC4/PWM_2.c **** * Return:
  81:Generated_Source\PSoC4/PWM_2.c **** *  None
  82:Generated_Source\PSoC4/PWM_2.c **** *
  83:Generated_Source\PSoC4/PWM_2.c **** *******************************************************************************/
  84:Generated_Source\PSoC4/PWM_2.c **** void PWM_2_Init(void) 
  85:Generated_Source\PSoC4/PWM_2.c **** {
  86:Generated_Source\PSoC4/PWM_2.c ****     #if (PWM_2_UsingFixedFunction || PWM_2_UseControl)
  87:Generated_Source\PSoC4/PWM_2.c ****         uint8 ctrl;
  88:Generated_Source\PSoC4/PWM_2.c ****     #endif /* (PWM_2_UsingFixedFunction || PWM_2_UseControl) */
  89:Generated_Source\PSoC4/PWM_2.c **** 
ARM GAS  C:\Users\a83571\AppData\Local\Temp\ccEBNeug.s 			page 3


  90:Generated_Source\PSoC4/PWM_2.c ****     #if(!PWM_2_UsingFixedFunction)
  91:Generated_Source\PSoC4/PWM_2.c ****         #if(PWM_2_UseStatus)
  92:Generated_Source\PSoC4/PWM_2.c ****             /* Interrupt State Backup for Critical Region*/
  93:Generated_Source\PSoC4/PWM_2.c ****             uint8 PWM_2_interruptState;
  94:Generated_Source\PSoC4/PWM_2.c ****         #endif /* (PWM_2_UseStatus) */
  95:Generated_Source\PSoC4/PWM_2.c ****     #endif /* (!PWM_2_UsingFixedFunction) */
  96:Generated_Source\PSoC4/PWM_2.c **** 
  97:Generated_Source\PSoC4/PWM_2.c ****     #if (PWM_2_UsingFixedFunction)
  98:Generated_Source\PSoC4/PWM_2.c ****         /* You are allowed to write the compare value (FF only) */
  99:Generated_Source\PSoC4/PWM_2.c ****         PWM_2_CONTROL |= PWM_2_CFG0_MODE;
 100:Generated_Source\PSoC4/PWM_2.c ****         #if (PWM_2_DeadBand2_4)
 101:Generated_Source\PSoC4/PWM_2.c ****             PWM_2_CONTROL |= PWM_2_CFG0_DB;
 102:Generated_Source\PSoC4/PWM_2.c ****         #endif /* (PWM_2_DeadBand2_4) */
 103:Generated_Source\PSoC4/PWM_2.c **** 
 104:Generated_Source\PSoC4/PWM_2.c ****         ctrl = PWM_2_CONTROL3 & ((uint8 )(~PWM_2_CTRL_CMPMODE1_MASK));
 105:Generated_Source\PSoC4/PWM_2.c ****         PWM_2_CONTROL3 = ctrl | PWM_2_DEFAULT_COMPARE1_MODE;
 106:Generated_Source\PSoC4/PWM_2.c **** 
 107:Generated_Source\PSoC4/PWM_2.c ****          /* Clear and Set SYNCTC and SYNCCMP bits of RT1 register */
 108:Generated_Source\PSoC4/PWM_2.c ****         PWM_2_RT1 &= ((uint8)(~PWM_2_RT1_MASK));
 109:Generated_Source\PSoC4/PWM_2.c ****         PWM_2_RT1 |= PWM_2_SYNC;
 110:Generated_Source\PSoC4/PWM_2.c **** 
 111:Generated_Source\PSoC4/PWM_2.c ****         /*Enable DSI Sync all all inputs of the PWM*/
 112:Generated_Source\PSoC4/PWM_2.c ****         PWM_2_RT1 &= ((uint8)(~PWM_2_SYNCDSI_MASK));
 113:Generated_Source\PSoC4/PWM_2.c ****         PWM_2_RT1 |= PWM_2_SYNCDSI_EN;
 114:Generated_Source\PSoC4/PWM_2.c **** 
 115:Generated_Source\PSoC4/PWM_2.c ****     #elif (PWM_2_UseControl)
 116:Generated_Source\PSoC4/PWM_2.c ****         /* Set the default compare mode defined in the parameter */
 117:Generated_Source\PSoC4/PWM_2.c ****         ctrl = PWM_2_CONTROL & ((uint8)(~PWM_2_CTRL_CMPMODE2_MASK)) &
 118:Generated_Source\PSoC4/PWM_2.c ****                 ((uint8)(~PWM_2_CTRL_CMPMODE1_MASK));
 119:Generated_Source\PSoC4/PWM_2.c ****         PWM_2_CONTROL = ctrl | PWM_2_DEFAULT_COMPARE2_MODE |
 120:Generated_Source\PSoC4/PWM_2.c ****                                    PWM_2_DEFAULT_COMPARE1_MODE;
 121:Generated_Source\PSoC4/PWM_2.c ****     #endif /* (PWM_2_UsingFixedFunction) */
 122:Generated_Source\PSoC4/PWM_2.c **** 
 123:Generated_Source\PSoC4/PWM_2.c ****     #if (!PWM_2_UsingFixedFunction)
 124:Generated_Source\PSoC4/PWM_2.c ****         #if (PWM_2_Resolution == 8)
 125:Generated_Source\PSoC4/PWM_2.c ****             /* Set FIFO 0 to 1 byte register for period*/
 126:Generated_Source\PSoC4/PWM_2.c ****             PWM_2_AUX_CONTROLDP0 |= (PWM_2_AUX_CTRL_FIFO0_CLR);
 127:Generated_Source\PSoC4/PWM_2.c ****         #else /* (PWM_2_Resolution == 16)*/
 128:Generated_Source\PSoC4/PWM_2.c ****             /* Set FIFO 0 to 1 byte register for period */
 129:Generated_Source\PSoC4/PWM_2.c ****             PWM_2_AUX_CONTROLDP0 |= (PWM_2_AUX_CTRL_FIFO0_CLR);
 130:Generated_Source\PSoC4/PWM_2.c ****             PWM_2_AUX_CONTROLDP1 |= (PWM_2_AUX_CTRL_FIFO0_CLR);
 131:Generated_Source\PSoC4/PWM_2.c ****         #endif /* (PWM_2_Resolution == 8) */
 132:Generated_Source\PSoC4/PWM_2.c **** 
 133:Generated_Source\PSoC4/PWM_2.c ****         PWM_2_WriteCounter(PWM_2_INIT_PERIOD_VALUE);
 134:Generated_Source\PSoC4/PWM_2.c ****     #endif /* (!PWM_2_UsingFixedFunction) */
 135:Generated_Source\PSoC4/PWM_2.c **** 
 136:Generated_Source\PSoC4/PWM_2.c ****     PWM_2_WritePeriod(PWM_2_INIT_PERIOD_VALUE);
 137:Generated_Source\PSoC4/PWM_2.c **** 
 138:Generated_Source\PSoC4/PWM_2.c ****         #if (PWM_2_UseOneCompareMode)
 139:Generated_Source\PSoC4/PWM_2.c ****             PWM_2_WriteCompare(PWM_2_INIT_COMPARE_VALUE1);
 140:Generated_Source\PSoC4/PWM_2.c ****         #else
 141:Generated_Source\PSoC4/PWM_2.c ****             PWM_2_WriteCompare1(PWM_2_INIT_COMPARE_VALUE1);
 142:Generated_Source\PSoC4/PWM_2.c ****             PWM_2_WriteCompare2(PWM_2_INIT_COMPARE_VALUE2);
 143:Generated_Source\PSoC4/PWM_2.c ****         #endif /* (PWM_2_UseOneCompareMode) */
 144:Generated_Source\PSoC4/PWM_2.c **** 
 145:Generated_Source\PSoC4/PWM_2.c ****         #if (PWM_2_KillModeMinTime)
 146:Generated_Source\PSoC4/PWM_2.c ****             PWM_2_WriteKillTime(PWM_2_MinimumKillTime);
ARM GAS  C:\Users\a83571\AppData\Local\Temp\ccEBNeug.s 			page 4


 147:Generated_Source\PSoC4/PWM_2.c ****         #endif /* (PWM_2_KillModeMinTime) */
 148:Generated_Source\PSoC4/PWM_2.c **** 
 149:Generated_Source\PSoC4/PWM_2.c ****         #if (PWM_2_DeadBandUsed)
 150:Generated_Source\PSoC4/PWM_2.c ****             PWM_2_WriteDeadTime(PWM_2_INIT_DEAD_TIME);
 151:Generated_Source\PSoC4/PWM_2.c ****         #endif /* (PWM_2_DeadBandUsed) */
 152:Generated_Source\PSoC4/PWM_2.c **** 
 153:Generated_Source\PSoC4/PWM_2.c ****     #if (PWM_2_UseStatus || PWM_2_UsingFixedFunction)
 154:Generated_Source\PSoC4/PWM_2.c ****         PWM_2_SetInterruptMode(PWM_2_INIT_INTERRUPTS_MODE);
 155:Generated_Source\PSoC4/PWM_2.c ****     #endif /* (PWM_2_UseStatus || PWM_2_UsingFixedFunction) */
 156:Generated_Source\PSoC4/PWM_2.c **** 
 157:Generated_Source\PSoC4/PWM_2.c ****     #if (PWM_2_UsingFixedFunction)
 158:Generated_Source\PSoC4/PWM_2.c ****         /* Globally Enable the Fixed Function Block chosen */
 159:Generated_Source\PSoC4/PWM_2.c ****         PWM_2_GLOBAL_ENABLE |= PWM_2_BLOCK_EN_MASK;
 160:Generated_Source\PSoC4/PWM_2.c ****         /* Set the Interrupt source to come from the status register */
 161:Generated_Source\PSoC4/PWM_2.c ****         PWM_2_CONTROL2 |= PWM_2_CTRL2_IRQ_SEL;
 162:Generated_Source\PSoC4/PWM_2.c ****     #else
 163:Generated_Source\PSoC4/PWM_2.c ****         #if(PWM_2_UseStatus)
 164:Generated_Source\PSoC4/PWM_2.c **** 
 165:Generated_Source\PSoC4/PWM_2.c ****             /* CyEnterCriticalRegion and CyExitCriticalRegion are used to mark following region cri
 166:Generated_Source\PSoC4/PWM_2.c ****             /* Enter Critical Region*/
 167:Generated_Source\PSoC4/PWM_2.c ****             PWM_2_interruptState = CyEnterCriticalSection();
 168:Generated_Source\PSoC4/PWM_2.c ****             /* Use the interrupt output of the status register for IRQ output */
 169:Generated_Source\PSoC4/PWM_2.c ****             PWM_2_STATUS_AUX_CTRL |= PWM_2_STATUS_ACTL_INT_EN_MASK;
 170:Generated_Source\PSoC4/PWM_2.c **** 
 171:Generated_Source\PSoC4/PWM_2.c ****              /* Exit Critical Region*/
 172:Generated_Source\PSoC4/PWM_2.c ****             CyExitCriticalSection(PWM_2_interruptState);
 173:Generated_Source\PSoC4/PWM_2.c **** 
 174:Generated_Source\PSoC4/PWM_2.c ****             /* Clear the FIFO to enable the PWM_2_STATUS_FIFOFULL
 175:Generated_Source\PSoC4/PWM_2.c ****                    bit to be set on FIFO full. */
 176:Generated_Source\PSoC4/PWM_2.c ****             PWM_2_ClearFIFO();
 177:Generated_Source\PSoC4/PWM_2.c ****         #endif /* (PWM_2_UseStatus) */
 178:Generated_Source\PSoC4/PWM_2.c ****     #endif /* (PWM_2_UsingFixedFunction) */
 179:Generated_Source\PSoC4/PWM_2.c **** }
 180:Generated_Source\PSoC4/PWM_2.c **** 
 181:Generated_Source\PSoC4/PWM_2.c **** 
 182:Generated_Source\PSoC4/PWM_2.c **** /*******************************************************************************
 183:Generated_Source\PSoC4/PWM_2.c **** * Function Name: PWM_2_Enable
 184:Generated_Source\PSoC4/PWM_2.c **** ********************************************************************************
 185:Generated_Source\PSoC4/PWM_2.c **** *
 186:Generated_Source\PSoC4/PWM_2.c **** * Summary:
 187:Generated_Source\PSoC4/PWM_2.c **** *  Enables the PWM block operation
 188:Generated_Source\PSoC4/PWM_2.c **** *
 189:Generated_Source\PSoC4/PWM_2.c **** * Parameters:
 190:Generated_Source\PSoC4/PWM_2.c **** *  None
 191:Generated_Source\PSoC4/PWM_2.c **** *
 192:Generated_Source\PSoC4/PWM_2.c **** * Return:
 193:Generated_Source\PSoC4/PWM_2.c **** *  None
 194:Generated_Source\PSoC4/PWM_2.c **** *
 195:Generated_Source\PSoC4/PWM_2.c **** * Side Effects:
 196:Generated_Source\PSoC4/PWM_2.c **** *  This works only if software enable mode is chosen
 197:Generated_Source\PSoC4/PWM_2.c **** *
 198:Generated_Source\PSoC4/PWM_2.c **** *******************************************************************************/
 199:Generated_Source\PSoC4/PWM_2.c **** void PWM_2_Enable(void) 
 200:Generated_Source\PSoC4/PWM_2.c **** {
  26              		.loc 1 200 0
  27              		.cfi_startproc
 201:Generated_Source\PSoC4/PWM_2.c ****     /* Globally Enable the Fixed Function Block chosen */
ARM GAS  C:\Users\a83571\AppData\Local\Temp\ccEBNeug.s 			page 5


 202:Generated_Source\PSoC4/PWM_2.c ****     #if (PWM_2_UsingFixedFunction)
 203:Generated_Source\PSoC4/PWM_2.c ****         PWM_2_GLOBAL_ENABLE |= PWM_2_BLOCK_EN_MASK;
 204:Generated_Source\PSoC4/PWM_2.c ****         PWM_2_GLOBAL_STBY_ENABLE |= PWM_2_BLOCK_STBY_EN_MASK;
 205:Generated_Source\PSoC4/PWM_2.c ****     #endif /* (PWM_2_UsingFixedFunction) */
 206:Generated_Source\PSoC4/PWM_2.c **** 
 207:Generated_Source\PSoC4/PWM_2.c ****     /* Enable the PWM from the control register  */
 208:Generated_Source\PSoC4/PWM_2.c ****     #if (PWM_2_UseControl || PWM_2_UsingFixedFunction)
 209:Generated_Source\PSoC4/PWM_2.c ****         PWM_2_CONTROL |= PWM_2_CTRL_ENABLE;
  28              		.loc 1 209 0
  29 0000 024A     		ldr	r2, .L2
  30 0002 1178     		ldrb	r1, [r2]
  31 0004 8023     		mov	r3, #128
  32 0006 0B43     		orr	r3, r1
  33 0008 1370     		strb	r3, [r2]
 210:Generated_Source\PSoC4/PWM_2.c ****     #endif /* (PWM_2_UseControl || PWM_2_UsingFixedFunction) */
 211:Generated_Source\PSoC4/PWM_2.c **** }
  34              		.loc 1 211 0
  35              		@ sp needed
  36 000a 7047     		bx	lr
  37              	.L3:
  38              		.align	2
  39              	.L2:
  40 000c 73000F40 		.word	1074724979
  41              		.cfi_endproc
  42              	.LFE4:
  43              		.size	PWM_2_Enable, .-PWM_2_Enable
  44              		.section	.text.PWM_2_Stop,"ax",%progbits
  45              		.align	2
  46              		.global	PWM_2_Stop
  47              		.code	16
  48              		.thumb_func
  49              		.type	PWM_2_Stop, %function
  50              	PWM_2_Stop:
  51              	.LFB5:
 212:Generated_Source\PSoC4/PWM_2.c **** 
 213:Generated_Source\PSoC4/PWM_2.c **** 
 214:Generated_Source\PSoC4/PWM_2.c **** /*******************************************************************************
 215:Generated_Source\PSoC4/PWM_2.c **** * Function Name: PWM_2_Stop
 216:Generated_Source\PSoC4/PWM_2.c **** ********************************************************************************
 217:Generated_Source\PSoC4/PWM_2.c **** *
 218:Generated_Source\PSoC4/PWM_2.c **** * Summary:
 219:Generated_Source\PSoC4/PWM_2.c **** *  The stop function halts the PWM, but does not change any modes or disable
 220:Generated_Source\PSoC4/PWM_2.c **** *  interrupts.
 221:Generated_Source\PSoC4/PWM_2.c **** *
 222:Generated_Source\PSoC4/PWM_2.c **** * Parameters:
 223:Generated_Source\PSoC4/PWM_2.c **** *  None
 224:Generated_Source\PSoC4/PWM_2.c **** *
 225:Generated_Source\PSoC4/PWM_2.c **** * Return:
 226:Generated_Source\PSoC4/PWM_2.c **** *  None
 227:Generated_Source\PSoC4/PWM_2.c **** *
 228:Generated_Source\PSoC4/PWM_2.c **** * Side Effects:
 229:Generated_Source\PSoC4/PWM_2.c **** *  If the Enable mode is set to Hardware only then this function
 230:Generated_Source\PSoC4/PWM_2.c **** *  has no effect on the operation of the PWM
 231:Generated_Source\PSoC4/PWM_2.c **** *
 232:Generated_Source\PSoC4/PWM_2.c **** *******************************************************************************/
 233:Generated_Source\PSoC4/PWM_2.c **** void PWM_2_Stop(void) 
 234:Generated_Source\PSoC4/PWM_2.c **** {
ARM GAS  C:\Users\a83571\AppData\Local\Temp\ccEBNeug.s 			page 6


  52              		.loc 1 234 0
  53              		.cfi_startproc
 235:Generated_Source\PSoC4/PWM_2.c ****     #if (PWM_2_UseControl || PWM_2_UsingFixedFunction)
 236:Generated_Source\PSoC4/PWM_2.c ****         PWM_2_CONTROL &= ((uint8)(~PWM_2_CTRL_ENABLE));
  54              		.loc 1 236 0
  55 0000 024A     		ldr	r2, .L5
  56 0002 1178     		ldrb	r1, [r2]
  57 0004 7F23     		mov	r3, #127
  58 0006 0B40     		and	r3, r1
  59 0008 1370     		strb	r3, [r2]
 237:Generated_Source\PSoC4/PWM_2.c ****     #endif /* (PWM_2_UseControl || PWM_2_UsingFixedFunction) */
 238:Generated_Source\PSoC4/PWM_2.c **** 
 239:Generated_Source\PSoC4/PWM_2.c ****     /* Globally disable the Fixed Function Block chosen */
 240:Generated_Source\PSoC4/PWM_2.c ****     #if (PWM_2_UsingFixedFunction)
 241:Generated_Source\PSoC4/PWM_2.c ****         PWM_2_GLOBAL_ENABLE &= ((uint8)(~PWM_2_BLOCK_EN_MASK));
 242:Generated_Source\PSoC4/PWM_2.c ****         PWM_2_GLOBAL_STBY_ENABLE &= ((uint8)(~PWM_2_BLOCK_STBY_EN_MASK));
 243:Generated_Source\PSoC4/PWM_2.c ****     #endif /* (PWM_2_UsingFixedFunction) */
 244:Generated_Source\PSoC4/PWM_2.c **** }
  60              		.loc 1 244 0
  61              		@ sp needed
  62 000a 7047     		bx	lr
  63              	.L6:
  64              		.align	2
  65              	.L5:
  66 000c 73000F40 		.word	1074724979
  67              		.cfi_endproc
  68              	.LFE5:
  69              		.size	PWM_2_Stop, .-PWM_2_Stop
  70              		.section	.text.PWM_2_WriteCounter,"ax",%progbits
  71              		.align	2
  72              		.global	PWM_2_WriteCounter
  73              		.code	16
  74              		.thumb_func
  75              		.type	PWM_2_WriteCounter, %function
  76              	PWM_2_WriteCounter:
  77              	.LFB6:
 245:Generated_Source\PSoC4/PWM_2.c **** 
 246:Generated_Source\PSoC4/PWM_2.c **** #if (PWM_2_UseOneCompareMode)
 247:Generated_Source\PSoC4/PWM_2.c ****     #if (PWM_2_CompareMode1SW)
 248:Generated_Source\PSoC4/PWM_2.c **** 
 249:Generated_Source\PSoC4/PWM_2.c **** 
 250:Generated_Source\PSoC4/PWM_2.c ****         /*******************************************************************************
 251:Generated_Source\PSoC4/PWM_2.c ****         * Function Name: PWM_2_SetCompareMode
 252:Generated_Source\PSoC4/PWM_2.c ****         ********************************************************************************
 253:Generated_Source\PSoC4/PWM_2.c ****         *
 254:Generated_Source\PSoC4/PWM_2.c ****         * Summary:
 255:Generated_Source\PSoC4/PWM_2.c ****         *  This function writes the Compare Mode for the pwm output when in Dither mode,
 256:Generated_Source\PSoC4/PWM_2.c ****         *  Center Align Mode or One Output Mode.
 257:Generated_Source\PSoC4/PWM_2.c ****         *
 258:Generated_Source\PSoC4/PWM_2.c ****         * Parameters:
 259:Generated_Source\PSoC4/PWM_2.c ****         *  comparemode:  The new compare mode for the PWM output. Use the compare types
 260:Generated_Source\PSoC4/PWM_2.c ****         *                defined in the H file as input arguments.
 261:Generated_Source\PSoC4/PWM_2.c ****         *
 262:Generated_Source\PSoC4/PWM_2.c ****         * Return:
 263:Generated_Source\PSoC4/PWM_2.c ****         *  None
 264:Generated_Source\PSoC4/PWM_2.c ****         *
 265:Generated_Source\PSoC4/PWM_2.c ****         *******************************************************************************/
ARM GAS  C:\Users\a83571\AppData\Local\Temp\ccEBNeug.s 			page 7


 266:Generated_Source\PSoC4/PWM_2.c ****         void PWM_2_SetCompareMode(uint8 comparemode) 
 267:Generated_Source\PSoC4/PWM_2.c ****         {
 268:Generated_Source\PSoC4/PWM_2.c ****             #if(PWM_2_UsingFixedFunction)
 269:Generated_Source\PSoC4/PWM_2.c **** 
 270:Generated_Source\PSoC4/PWM_2.c ****                 #if(0 != PWM_2_CTRL_CMPMODE1_SHIFT)
 271:Generated_Source\PSoC4/PWM_2.c ****                     uint8 comparemodemasked = ((uint8)((uint8)comparemode << PWM_2_CTRL_CMPMODE1_SH
 272:Generated_Source\PSoC4/PWM_2.c ****                 #else
 273:Generated_Source\PSoC4/PWM_2.c ****                     uint8 comparemodemasked = comparemode;
 274:Generated_Source\PSoC4/PWM_2.c ****                 #endif /* (0 != PWM_2_CTRL_CMPMODE1_SHIFT) */
 275:Generated_Source\PSoC4/PWM_2.c **** 
 276:Generated_Source\PSoC4/PWM_2.c ****                 PWM_2_CONTROL3 &= ((uint8)(~PWM_2_CTRL_CMPMODE1_MASK)); /*Clear Existing Data */
 277:Generated_Source\PSoC4/PWM_2.c ****                 PWM_2_CONTROL3 |= comparemodemasked;
 278:Generated_Source\PSoC4/PWM_2.c **** 
 279:Generated_Source\PSoC4/PWM_2.c ****             #elif (PWM_2_UseControl)
 280:Generated_Source\PSoC4/PWM_2.c **** 
 281:Generated_Source\PSoC4/PWM_2.c ****                 #if(0 != PWM_2_CTRL_CMPMODE1_SHIFT)
 282:Generated_Source\PSoC4/PWM_2.c ****                     uint8 comparemode1masked = ((uint8)((uint8)comparemode << PWM_2_CTRL_CMPMODE1_S
 283:Generated_Source\PSoC4/PWM_2.c ****                                                 PWM_2_CTRL_CMPMODE1_MASK;
 284:Generated_Source\PSoC4/PWM_2.c ****                 #else
 285:Generated_Source\PSoC4/PWM_2.c ****                     uint8 comparemode1masked = comparemode & PWM_2_CTRL_CMPMODE1_MASK;
 286:Generated_Source\PSoC4/PWM_2.c ****                 #endif /* (0 != PWM_2_CTRL_CMPMODE1_SHIFT) */
 287:Generated_Source\PSoC4/PWM_2.c **** 
 288:Generated_Source\PSoC4/PWM_2.c ****                 #if(0 != PWM_2_CTRL_CMPMODE2_SHIFT)
 289:Generated_Source\PSoC4/PWM_2.c ****                     uint8 comparemode2masked = ((uint8)((uint8)comparemode << PWM_2_CTRL_CMPMODE2_S
 290:Generated_Source\PSoC4/PWM_2.c ****                                                PWM_2_CTRL_CMPMODE2_MASK;
 291:Generated_Source\PSoC4/PWM_2.c ****                 #else
 292:Generated_Source\PSoC4/PWM_2.c ****                     uint8 comparemode2masked = comparemode & PWM_2_CTRL_CMPMODE2_MASK;
 293:Generated_Source\PSoC4/PWM_2.c ****                 #endif /* (0 != PWM_2_CTRL_CMPMODE2_SHIFT) */
 294:Generated_Source\PSoC4/PWM_2.c **** 
 295:Generated_Source\PSoC4/PWM_2.c ****                 /*Clear existing mode */
 296:Generated_Source\PSoC4/PWM_2.c ****                 PWM_2_CONTROL &= ((uint8)(~(PWM_2_CTRL_CMPMODE1_MASK |
 297:Generated_Source\PSoC4/PWM_2.c ****                                             PWM_2_CTRL_CMPMODE2_MASK)));
 298:Generated_Source\PSoC4/PWM_2.c ****                 PWM_2_CONTROL |= (comparemode1masked | comparemode2masked);
 299:Generated_Source\PSoC4/PWM_2.c **** 
 300:Generated_Source\PSoC4/PWM_2.c ****             #else
 301:Generated_Source\PSoC4/PWM_2.c ****                 uint8 temp = comparemode;
 302:Generated_Source\PSoC4/PWM_2.c ****             #endif /* (PWM_2_UsingFixedFunction) */
 303:Generated_Source\PSoC4/PWM_2.c ****         }
 304:Generated_Source\PSoC4/PWM_2.c ****     #endif /* PWM_2_CompareMode1SW */
 305:Generated_Source\PSoC4/PWM_2.c **** 
 306:Generated_Source\PSoC4/PWM_2.c **** #else /* UseOneCompareMode */
 307:Generated_Source\PSoC4/PWM_2.c **** 
 308:Generated_Source\PSoC4/PWM_2.c ****     #if (PWM_2_CompareMode1SW)
 309:Generated_Source\PSoC4/PWM_2.c **** 
 310:Generated_Source\PSoC4/PWM_2.c **** 
 311:Generated_Source\PSoC4/PWM_2.c ****         /*******************************************************************************
 312:Generated_Source\PSoC4/PWM_2.c ****         * Function Name: PWM_2_SetCompareMode1
 313:Generated_Source\PSoC4/PWM_2.c ****         ********************************************************************************
 314:Generated_Source\PSoC4/PWM_2.c ****         *
 315:Generated_Source\PSoC4/PWM_2.c ****         * Summary:
 316:Generated_Source\PSoC4/PWM_2.c ****         *  This function writes the Compare Mode for the pwm or pwm1 output
 317:Generated_Source\PSoC4/PWM_2.c ****         *
 318:Generated_Source\PSoC4/PWM_2.c ****         * Parameters:
 319:Generated_Source\PSoC4/PWM_2.c ****         *  comparemode:  The new compare mode for the PWM output. Use the compare types
 320:Generated_Source\PSoC4/PWM_2.c ****         *                defined in the H file as input arguments.
 321:Generated_Source\PSoC4/PWM_2.c ****         *
 322:Generated_Source\PSoC4/PWM_2.c ****         * Return:
ARM GAS  C:\Users\a83571\AppData\Local\Temp\ccEBNeug.s 			page 8


 323:Generated_Source\PSoC4/PWM_2.c ****         *  None
 324:Generated_Source\PSoC4/PWM_2.c ****         *
 325:Generated_Source\PSoC4/PWM_2.c ****         *******************************************************************************/
 326:Generated_Source\PSoC4/PWM_2.c ****         void PWM_2_SetCompareMode1(uint8 comparemode) 
 327:Generated_Source\PSoC4/PWM_2.c ****         {
 328:Generated_Source\PSoC4/PWM_2.c ****             #if(0 != PWM_2_CTRL_CMPMODE1_SHIFT)
 329:Generated_Source\PSoC4/PWM_2.c ****                 uint8 comparemodemasked = ((uint8)((uint8)comparemode << PWM_2_CTRL_CMPMODE1_SHIFT)
 330:Generated_Source\PSoC4/PWM_2.c ****                                            PWM_2_CTRL_CMPMODE1_MASK;
 331:Generated_Source\PSoC4/PWM_2.c ****             #else
 332:Generated_Source\PSoC4/PWM_2.c ****                 uint8 comparemodemasked = comparemode & PWM_2_CTRL_CMPMODE1_MASK;
 333:Generated_Source\PSoC4/PWM_2.c ****             #endif /* (0 != PWM_2_CTRL_CMPMODE1_SHIFT) */
 334:Generated_Source\PSoC4/PWM_2.c **** 
 335:Generated_Source\PSoC4/PWM_2.c ****             #if (PWM_2_UseControl)
 336:Generated_Source\PSoC4/PWM_2.c ****                 PWM_2_CONTROL &= ((uint8)(~PWM_2_CTRL_CMPMODE1_MASK)); /*Clear existing mode */
 337:Generated_Source\PSoC4/PWM_2.c ****                 PWM_2_CONTROL |= comparemodemasked;
 338:Generated_Source\PSoC4/PWM_2.c ****             #endif /* (PWM_2_UseControl) */
 339:Generated_Source\PSoC4/PWM_2.c ****         }
 340:Generated_Source\PSoC4/PWM_2.c ****     #endif /* PWM_2_CompareMode1SW */
 341:Generated_Source\PSoC4/PWM_2.c **** 
 342:Generated_Source\PSoC4/PWM_2.c **** #if (PWM_2_CompareMode2SW)
 343:Generated_Source\PSoC4/PWM_2.c **** 
 344:Generated_Source\PSoC4/PWM_2.c **** 
 345:Generated_Source\PSoC4/PWM_2.c ****     /*******************************************************************************
 346:Generated_Source\PSoC4/PWM_2.c ****     * Function Name: PWM_2_SetCompareMode2
 347:Generated_Source\PSoC4/PWM_2.c ****     ********************************************************************************
 348:Generated_Source\PSoC4/PWM_2.c ****     *
 349:Generated_Source\PSoC4/PWM_2.c ****     * Summary:
 350:Generated_Source\PSoC4/PWM_2.c ****     *  This function writes the Compare Mode for the pwm or pwm2 output
 351:Generated_Source\PSoC4/PWM_2.c ****     *
 352:Generated_Source\PSoC4/PWM_2.c ****     * Parameters:
 353:Generated_Source\PSoC4/PWM_2.c ****     *  comparemode:  The new compare mode for the PWM output. Use the compare types
 354:Generated_Source\PSoC4/PWM_2.c ****     *                defined in the H file as input arguments.
 355:Generated_Source\PSoC4/PWM_2.c ****     *
 356:Generated_Source\PSoC4/PWM_2.c ****     * Return:
 357:Generated_Source\PSoC4/PWM_2.c ****     *  None
 358:Generated_Source\PSoC4/PWM_2.c ****     *
 359:Generated_Source\PSoC4/PWM_2.c ****     *******************************************************************************/
 360:Generated_Source\PSoC4/PWM_2.c ****     void PWM_2_SetCompareMode2(uint8 comparemode) 
 361:Generated_Source\PSoC4/PWM_2.c ****     {
 362:Generated_Source\PSoC4/PWM_2.c **** 
 363:Generated_Source\PSoC4/PWM_2.c ****         #if(0 != PWM_2_CTRL_CMPMODE2_SHIFT)
 364:Generated_Source\PSoC4/PWM_2.c ****             uint8 comparemodemasked = ((uint8)((uint8)comparemode << PWM_2_CTRL_CMPMODE2_SHIFT)) &
 365:Generated_Source\PSoC4/PWM_2.c ****                                                  PWM_2_CTRL_CMPMODE2_MASK;
 366:Generated_Source\PSoC4/PWM_2.c ****         #else
 367:Generated_Source\PSoC4/PWM_2.c ****             uint8 comparemodemasked = comparemode & PWM_2_CTRL_CMPMODE2_MASK;
 368:Generated_Source\PSoC4/PWM_2.c ****         #endif /* (0 != PWM_2_CTRL_CMPMODE2_SHIFT) */
 369:Generated_Source\PSoC4/PWM_2.c **** 
 370:Generated_Source\PSoC4/PWM_2.c ****         #if (PWM_2_UseControl)
 371:Generated_Source\PSoC4/PWM_2.c ****             PWM_2_CONTROL &= ((uint8)(~PWM_2_CTRL_CMPMODE2_MASK)); /*Clear existing mode */
 372:Generated_Source\PSoC4/PWM_2.c ****             PWM_2_CONTROL |= comparemodemasked;
 373:Generated_Source\PSoC4/PWM_2.c ****         #endif /* (PWM_2_UseControl) */
 374:Generated_Source\PSoC4/PWM_2.c ****     }
 375:Generated_Source\PSoC4/PWM_2.c ****     #endif /*PWM_2_CompareMode2SW */
 376:Generated_Source\PSoC4/PWM_2.c **** 
 377:Generated_Source\PSoC4/PWM_2.c **** #endif /* UseOneCompareMode */
 378:Generated_Source\PSoC4/PWM_2.c **** 
 379:Generated_Source\PSoC4/PWM_2.c **** 
ARM GAS  C:\Users\a83571\AppData\Local\Temp\ccEBNeug.s 			page 9


 380:Generated_Source\PSoC4/PWM_2.c **** #if (!PWM_2_UsingFixedFunction)
 381:Generated_Source\PSoC4/PWM_2.c **** 
 382:Generated_Source\PSoC4/PWM_2.c **** 
 383:Generated_Source\PSoC4/PWM_2.c ****     /*******************************************************************************
 384:Generated_Source\PSoC4/PWM_2.c ****     * Function Name: PWM_2_WriteCounter
 385:Generated_Source\PSoC4/PWM_2.c ****     ********************************************************************************
 386:Generated_Source\PSoC4/PWM_2.c ****     *
 387:Generated_Source\PSoC4/PWM_2.c ****     * Summary:
 388:Generated_Source\PSoC4/PWM_2.c ****     *  Writes a new counter value directly to the counter register. This will be
 389:Generated_Source\PSoC4/PWM_2.c ****     *  implemented for that currently running period and only that period. This API
 390:Generated_Source\PSoC4/PWM_2.c ****     *  is valid only for UDB implementation and not available for fixed function
 391:Generated_Source\PSoC4/PWM_2.c ****     *  PWM implementation.
 392:Generated_Source\PSoC4/PWM_2.c ****     *
 393:Generated_Source\PSoC4/PWM_2.c ****     * Parameters:
 394:Generated_Source\PSoC4/PWM_2.c ****     *  counter:  The period new period counter value.
 395:Generated_Source\PSoC4/PWM_2.c ****     *
 396:Generated_Source\PSoC4/PWM_2.c ****     * Return:
 397:Generated_Source\PSoC4/PWM_2.c ****     *  None
 398:Generated_Source\PSoC4/PWM_2.c ****     *
 399:Generated_Source\PSoC4/PWM_2.c ****     * Side Effects:
 400:Generated_Source\PSoC4/PWM_2.c ****     *  The PWM Period will be reloaded when a counter value will be a zero
 401:Generated_Source\PSoC4/PWM_2.c ****     *
 402:Generated_Source\PSoC4/PWM_2.c ****     *******************************************************************************/
 403:Generated_Source\PSoC4/PWM_2.c ****     void PWM_2_WriteCounter(uint16 counter) \
 404:Generated_Source\PSoC4/PWM_2.c ****                                        
 405:Generated_Source\PSoC4/PWM_2.c ****     {
  78              		.loc 1 405 0
  79              		.cfi_startproc
  80              	.LVL0:
 406:Generated_Source\PSoC4/PWM_2.c ****         CY_SET_REG16(PWM_2_COUNTER_LSB_PTR, counter);
  81              		.loc 1 406 0
  82 0000 014B     		ldr	r3, .L8
  83 0002 1880     		strh	r0, [r3]
 407:Generated_Source\PSoC4/PWM_2.c ****     }
  84              		.loc 1 407 0
  85              		@ sp needed
  86 0004 7047     		bx	lr
  87              	.L9:
  88 0006 C046     		.align	2
  89              	.L8:
  90 0008 04100F40 		.word	1074728964
  91              		.cfi_endproc
  92              	.LFE6:
  93              		.size	PWM_2_WriteCounter, .-PWM_2_WriteCounter
  94              		.section	.text.PWM_2_ReadCounter,"ax",%progbits
  95              		.align	2
  96              		.global	PWM_2_ReadCounter
  97              		.code	16
  98              		.thumb_func
  99              		.type	PWM_2_ReadCounter, %function
 100              	PWM_2_ReadCounter:
 101              	.LFB7:
 408:Generated_Source\PSoC4/PWM_2.c **** 
 409:Generated_Source\PSoC4/PWM_2.c **** 
 410:Generated_Source\PSoC4/PWM_2.c ****     /*******************************************************************************
 411:Generated_Source\PSoC4/PWM_2.c ****     * Function Name: PWM_2_ReadCounter
 412:Generated_Source\PSoC4/PWM_2.c ****     ********************************************************************************
ARM GAS  C:\Users\a83571\AppData\Local\Temp\ccEBNeug.s 			page 10


 413:Generated_Source\PSoC4/PWM_2.c ****     *
 414:Generated_Source\PSoC4/PWM_2.c ****     * Summary:
 415:Generated_Source\PSoC4/PWM_2.c ****     *  This function returns the current value of the counter.  It doesn't matter
 416:Generated_Source\PSoC4/PWM_2.c ****     *  if the counter is enabled or running.
 417:Generated_Source\PSoC4/PWM_2.c ****     *
 418:Generated_Source\PSoC4/PWM_2.c ****     * Parameters:
 419:Generated_Source\PSoC4/PWM_2.c ****     *  None
 420:Generated_Source\PSoC4/PWM_2.c ****     *
 421:Generated_Source\PSoC4/PWM_2.c ****     * Return:
 422:Generated_Source\PSoC4/PWM_2.c ****     *  The current value of the counter.
 423:Generated_Source\PSoC4/PWM_2.c ****     *
 424:Generated_Source\PSoC4/PWM_2.c ****     *******************************************************************************/
 425:Generated_Source\PSoC4/PWM_2.c ****     uint16 PWM_2_ReadCounter(void) 
 426:Generated_Source\PSoC4/PWM_2.c ****     {
 102              		.loc 1 426 0
 103              		.cfi_startproc
 427:Generated_Source\PSoC4/PWM_2.c ****         /* Force capture by reading Accumulator */
 428:Generated_Source\PSoC4/PWM_2.c ****         /* Must first do a software capture to be able to read the counter */
 429:Generated_Source\PSoC4/PWM_2.c ****         /* It is up to the user code to make sure there isn't already captured data in the FIFO */
 430:Generated_Source\PSoC4/PWM_2.c ****           (void)CY_GET_REG8(PWM_2_COUNTERCAP_LSB_PTR_8BIT);
 104              		.loc 1 430 0
 105 0000 024B     		ldr	r3, .L11
 106 0002 1B78     		ldrb	r3, [r3]
 431:Generated_Source\PSoC4/PWM_2.c **** 
 432:Generated_Source\PSoC4/PWM_2.c ****         /* Read the data from the FIFO */
 433:Generated_Source\PSoC4/PWM_2.c ****         return (CY_GET_REG16(PWM_2_CAPTURE_LSB_PTR));
 107              		.loc 1 433 0
 108 0004 024B     		ldr	r3, .L11+4
 109 0006 1888     		ldrh	r0, [r3]
 110 0008 80B2     		uxth	r0, r0
 434:Generated_Source\PSoC4/PWM_2.c ****     }
 111              		.loc 1 434 0
 112              		@ sp needed
 113 000a 7047     		bx	lr
 114              	.L12:
 115              		.align	2
 116              	.L11:
 117 000c 12000F40 		.word	1074724882
 118 0010 A4100F40 		.word	1074729124
 119              		.cfi_endproc
 120              	.LFE7:
 121              		.size	PWM_2_ReadCounter, .-PWM_2_ReadCounter
 122              		.section	.text.PWM_2_WritePeriod,"ax",%progbits
 123              		.align	2
 124              		.global	PWM_2_WritePeriod
 125              		.code	16
 126              		.thumb_func
 127              		.type	PWM_2_WritePeriod, %function
 128              	PWM_2_WritePeriod:
 129              	.LFB9:
 435:Generated_Source\PSoC4/PWM_2.c **** 
 436:Generated_Source\PSoC4/PWM_2.c ****     #if (PWM_2_UseStatus)
 437:Generated_Source\PSoC4/PWM_2.c **** 
 438:Generated_Source\PSoC4/PWM_2.c **** 
 439:Generated_Source\PSoC4/PWM_2.c ****         /*******************************************************************************
 440:Generated_Source\PSoC4/PWM_2.c ****         * Function Name: PWM_2_ClearFIFO
 441:Generated_Source\PSoC4/PWM_2.c ****         ********************************************************************************
ARM GAS  C:\Users\a83571\AppData\Local\Temp\ccEBNeug.s 			page 11


 442:Generated_Source\PSoC4/PWM_2.c ****         *
 443:Generated_Source\PSoC4/PWM_2.c ****         * Summary:
 444:Generated_Source\PSoC4/PWM_2.c ****         *  This function clears all capture data from the capture FIFO
 445:Generated_Source\PSoC4/PWM_2.c ****         *
 446:Generated_Source\PSoC4/PWM_2.c ****         * Parameters:
 447:Generated_Source\PSoC4/PWM_2.c ****         *  None
 448:Generated_Source\PSoC4/PWM_2.c ****         *
 449:Generated_Source\PSoC4/PWM_2.c ****         * Return:
 450:Generated_Source\PSoC4/PWM_2.c ****         *  None
 451:Generated_Source\PSoC4/PWM_2.c ****         *
 452:Generated_Source\PSoC4/PWM_2.c ****         *******************************************************************************/
 453:Generated_Source\PSoC4/PWM_2.c ****         void PWM_2_ClearFIFO(void) 
 454:Generated_Source\PSoC4/PWM_2.c ****         {
 455:Generated_Source\PSoC4/PWM_2.c ****             while(0u != (PWM_2_ReadStatusRegister() & PWM_2_STATUS_FIFONEMPTY))
 456:Generated_Source\PSoC4/PWM_2.c ****             {
 457:Generated_Source\PSoC4/PWM_2.c ****                 (void)PWM_2_ReadCapture();
 458:Generated_Source\PSoC4/PWM_2.c ****             }
 459:Generated_Source\PSoC4/PWM_2.c ****         }
 460:Generated_Source\PSoC4/PWM_2.c **** 
 461:Generated_Source\PSoC4/PWM_2.c ****     #endif /* PWM_2_UseStatus */
 462:Generated_Source\PSoC4/PWM_2.c **** 
 463:Generated_Source\PSoC4/PWM_2.c **** #endif /* !PWM_2_UsingFixedFunction */
 464:Generated_Source\PSoC4/PWM_2.c **** 
 465:Generated_Source\PSoC4/PWM_2.c **** 
 466:Generated_Source\PSoC4/PWM_2.c **** /*******************************************************************************
 467:Generated_Source\PSoC4/PWM_2.c **** * Function Name: PWM_2_WritePeriod
 468:Generated_Source\PSoC4/PWM_2.c **** ********************************************************************************
 469:Generated_Source\PSoC4/PWM_2.c **** *
 470:Generated_Source\PSoC4/PWM_2.c **** * Summary:
 471:Generated_Source\PSoC4/PWM_2.c **** *  This function is used to change the period of the counter.  The new period
 472:Generated_Source\PSoC4/PWM_2.c **** *  will be loaded the next time terminal count is detected.
 473:Generated_Source\PSoC4/PWM_2.c **** *
 474:Generated_Source\PSoC4/PWM_2.c **** * Parameters:
 475:Generated_Source\PSoC4/PWM_2.c **** *  period:  Period value. May be between 1 and (2^Resolution)-1.  A value of 0
 476:Generated_Source\PSoC4/PWM_2.c **** *           will result in the counter remaining at zero.
 477:Generated_Source\PSoC4/PWM_2.c **** *
 478:Generated_Source\PSoC4/PWM_2.c **** * Return:
 479:Generated_Source\PSoC4/PWM_2.c **** *  None
 480:Generated_Source\PSoC4/PWM_2.c **** *
 481:Generated_Source\PSoC4/PWM_2.c **** *******************************************************************************/
 482:Generated_Source\PSoC4/PWM_2.c **** void PWM_2_WritePeriod(uint16 period) 
 483:Generated_Source\PSoC4/PWM_2.c **** {
 130              		.loc 1 483 0
 131              		.cfi_startproc
 132              	.LVL1:
 484:Generated_Source\PSoC4/PWM_2.c ****     #if(PWM_2_UsingFixedFunction)
 485:Generated_Source\PSoC4/PWM_2.c ****         CY_SET_REG16(PWM_2_PERIOD_LSB_PTR, (uint16)period);
 486:Generated_Source\PSoC4/PWM_2.c ****     #else
 487:Generated_Source\PSoC4/PWM_2.c ****         CY_SET_REG16(PWM_2_PERIOD_LSB_PTR, period);
 133              		.loc 1 487 0
 134 0000 014B     		ldr	r3, .L14
 135 0002 1880     		strh	r0, [r3]
 488:Generated_Source\PSoC4/PWM_2.c ****     #endif /* (PWM_2_UsingFixedFunction) */
 489:Generated_Source\PSoC4/PWM_2.c **** }
 136              		.loc 1 489 0
 137              		@ sp needed
 138 0004 7047     		bx	lr
ARM GAS  C:\Users\a83571\AppData\Local\Temp\ccEBNeug.s 			page 12


 139              	.L15:
 140 0006 C046     		.align	2
 141              	.L14:
 142 0008 84100F40 		.word	1074729092
 143              		.cfi_endproc
 144              	.LFE9:
 145              		.size	PWM_2_WritePeriod, .-PWM_2_WritePeriod
 146              		.section	.text.PWM_2_WriteCompare1,"ax",%progbits
 147              		.align	2
 148              		.global	PWM_2_WriteCompare1
 149              		.code	16
 150              		.thumb_func
 151              		.type	PWM_2_WriteCompare1, %function
 152              	PWM_2_WriteCompare1:
 153              	.LFB10:
 490:Generated_Source\PSoC4/PWM_2.c **** 
 491:Generated_Source\PSoC4/PWM_2.c **** #if (PWM_2_UseOneCompareMode)
 492:Generated_Source\PSoC4/PWM_2.c **** 
 493:Generated_Source\PSoC4/PWM_2.c **** 
 494:Generated_Source\PSoC4/PWM_2.c ****     /*******************************************************************************
 495:Generated_Source\PSoC4/PWM_2.c ****     * Function Name: PWM_2_WriteCompare
 496:Generated_Source\PSoC4/PWM_2.c ****     ********************************************************************************
 497:Generated_Source\PSoC4/PWM_2.c ****     *
 498:Generated_Source\PSoC4/PWM_2.c ****     * Summary:
 499:Generated_Source\PSoC4/PWM_2.c ****     *  This funtion is used to change the compare1 value when the PWM is in Dither
 500:Generated_Source\PSoC4/PWM_2.c ****     *  mode. The compare output will reflect the new value on the next UDB clock.
 501:Generated_Source\PSoC4/PWM_2.c ****     *  The compare output will be driven high when the present counter value is
 502:Generated_Source\PSoC4/PWM_2.c ****     *  compared to the compare value based on the compare mode defined in
 503:Generated_Source\PSoC4/PWM_2.c ****     *  Dither Mode.
 504:Generated_Source\PSoC4/PWM_2.c ****     *
 505:Generated_Source\PSoC4/PWM_2.c ****     * Parameters:
 506:Generated_Source\PSoC4/PWM_2.c ****     *  compare:  New compare value.
 507:Generated_Source\PSoC4/PWM_2.c ****     *
 508:Generated_Source\PSoC4/PWM_2.c ****     * Return:
 509:Generated_Source\PSoC4/PWM_2.c ****     *  None
 510:Generated_Source\PSoC4/PWM_2.c ****     *
 511:Generated_Source\PSoC4/PWM_2.c ****     * Side Effects:
 512:Generated_Source\PSoC4/PWM_2.c ****     *  This function is only available if the PWM mode parameter is set to
 513:Generated_Source\PSoC4/PWM_2.c ****     *  Dither Mode, Center Aligned Mode or One Output Mode
 514:Generated_Source\PSoC4/PWM_2.c ****     *
 515:Generated_Source\PSoC4/PWM_2.c ****     *******************************************************************************/
 516:Generated_Source\PSoC4/PWM_2.c ****     void PWM_2_WriteCompare(uint16 compare) \
 517:Generated_Source\PSoC4/PWM_2.c ****                                        
 518:Generated_Source\PSoC4/PWM_2.c ****     {
 519:Generated_Source\PSoC4/PWM_2.c ****         #if(PWM_2_UsingFixedFunction)
 520:Generated_Source\PSoC4/PWM_2.c ****             CY_SET_REG16(PWM_2_COMPARE1_LSB_PTR, (uint16)compare);
 521:Generated_Source\PSoC4/PWM_2.c ****         #else
 522:Generated_Source\PSoC4/PWM_2.c ****             CY_SET_REG16(PWM_2_COMPARE1_LSB_PTR, compare);
 523:Generated_Source\PSoC4/PWM_2.c ****         #endif /* (PWM_2_UsingFixedFunction) */
 524:Generated_Source\PSoC4/PWM_2.c **** 
 525:Generated_Source\PSoC4/PWM_2.c ****         #if (PWM_2_PWMMode == PWM_2__B_PWM__DITHER)
 526:Generated_Source\PSoC4/PWM_2.c ****             #if(PWM_2_UsingFixedFunction)
 527:Generated_Source\PSoC4/PWM_2.c ****                 CY_SET_REG16(PWM_2_COMPARE2_LSB_PTR, (uint16)(compare + 1u));
 528:Generated_Source\PSoC4/PWM_2.c ****             #else
 529:Generated_Source\PSoC4/PWM_2.c ****                 CY_SET_REG16(PWM_2_COMPARE2_LSB_PTR, (compare + 1u));
 530:Generated_Source\PSoC4/PWM_2.c ****             #endif /* (PWM_2_UsingFixedFunction) */
 531:Generated_Source\PSoC4/PWM_2.c ****         #endif /* (PWM_2_PWMMode == PWM_2__B_PWM__DITHER) */
ARM GAS  C:\Users\a83571\AppData\Local\Temp\ccEBNeug.s 			page 13


 532:Generated_Source\PSoC4/PWM_2.c ****     }
 533:Generated_Source\PSoC4/PWM_2.c **** 
 534:Generated_Source\PSoC4/PWM_2.c **** 
 535:Generated_Source\PSoC4/PWM_2.c **** #else
 536:Generated_Source\PSoC4/PWM_2.c **** 
 537:Generated_Source\PSoC4/PWM_2.c **** 
 538:Generated_Source\PSoC4/PWM_2.c ****     /*******************************************************************************
 539:Generated_Source\PSoC4/PWM_2.c ****     * Function Name: PWM_2_WriteCompare1
 540:Generated_Source\PSoC4/PWM_2.c ****     ********************************************************************************
 541:Generated_Source\PSoC4/PWM_2.c ****     *
 542:Generated_Source\PSoC4/PWM_2.c ****     * Summary:
 543:Generated_Source\PSoC4/PWM_2.c ****     *  This funtion is used to change the compare1 value.  The compare output will
 544:Generated_Source\PSoC4/PWM_2.c ****     *  reflect the new value on the next UDB clock.  The compare output will be
 545:Generated_Source\PSoC4/PWM_2.c ****     *  driven high when the present counter value is less than or less than or
 546:Generated_Source\PSoC4/PWM_2.c ****     *  equal to the compare register, depending on the mode.
 547:Generated_Source\PSoC4/PWM_2.c ****     *
 548:Generated_Source\PSoC4/PWM_2.c ****     * Parameters:
 549:Generated_Source\PSoC4/PWM_2.c ****     *  compare:  New compare value.
 550:Generated_Source\PSoC4/PWM_2.c ****     *
 551:Generated_Source\PSoC4/PWM_2.c ****     * Return:
 552:Generated_Source\PSoC4/PWM_2.c ****     *  None
 553:Generated_Source\PSoC4/PWM_2.c ****     *
 554:Generated_Source\PSoC4/PWM_2.c ****     *******************************************************************************/
 555:Generated_Source\PSoC4/PWM_2.c ****     void PWM_2_WriteCompare1(uint16 compare) \
 556:Generated_Source\PSoC4/PWM_2.c ****                                         
 557:Generated_Source\PSoC4/PWM_2.c ****     {
 154              		.loc 1 557 0
 155              		.cfi_startproc
 156              	.LVL2:
 558:Generated_Source\PSoC4/PWM_2.c ****         #if(PWM_2_UsingFixedFunction)
 559:Generated_Source\PSoC4/PWM_2.c ****             CY_SET_REG16(PWM_2_COMPARE1_LSB_PTR, (uint16)compare);
 560:Generated_Source\PSoC4/PWM_2.c ****         #else
 561:Generated_Source\PSoC4/PWM_2.c ****             CY_SET_REG16(PWM_2_COMPARE1_LSB_PTR, compare);
 157              		.loc 1 561 0
 158 0000 014B     		ldr	r3, .L17
 159 0002 1880     		strh	r0, [r3]
 562:Generated_Source\PSoC4/PWM_2.c ****         #endif /* (PWM_2_UsingFixedFunction) */
 563:Generated_Source\PSoC4/PWM_2.c ****     }
 160              		.loc 1 563 0
 161              		@ sp needed
 162 0004 7047     		bx	lr
 163              	.L18:
 164 0006 C046     		.align	2
 165              	.L17:
 166 0008 44100F40 		.word	1074729028
 167              		.cfi_endproc
 168              	.LFE10:
 169              		.size	PWM_2_WriteCompare1, .-PWM_2_WriteCompare1
 170              		.section	.text.PWM_2_WriteCompare2,"ax",%progbits
 171              		.align	2
 172              		.global	PWM_2_WriteCompare2
 173              		.code	16
 174              		.thumb_func
 175              		.type	PWM_2_WriteCompare2, %function
 176              	PWM_2_WriteCompare2:
 177              	.LFB11:
 564:Generated_Source\PSoC4/PWM_2.c **** 
ARM GAS  C:\Users\a83571\AppData\Local\Temp\ccEBNeug.s 			page 14


 565:Generated_Source\PSoC4/PWM_2.c **** 
 566:Generated_Source\PSoC4/PWM_2.c ****     /*******************************************************************************
 567:Generated_Source\PSoC4/PWM_2.c ****     * Function Name: PWM_2_WriteCompare2
 568:Generated_Source\PSoC4/PWM_2.c ****     ********************************************************************************
 569:Generated_Source\PSoC4/PWM_2.c ****     *
 570:Generated_Source\PSoC4/PWM_2.c ****     * Summary:
 571:Generated_Source\PSoC4/PWM_2.c ****     *  This funtion is used to change the compare value, for compare1 output.
 572:Generated_Source\PSoC4/PWM_2.c ****     *  The compare output will reflect the new value on the next UDB clock.
 573:Generated_Source\PSoC4/PWM_2.c ****     *  The compare output will be driven high when the present counter value is
 574:Generated_Source\PSoC4/PWM_2.c ****     *  less than or less than or equal to the compare register, depending on the
 575:Generated_Source\PSoC4/PWM_2.c ****     *  mode.
 576:Generated_Source\PSoC4/PWM_2.c ****     *
 577:Generated_Source\PSoC4/PWM_2.c ****     * Parameters:
 578:Generated_Source\PSoC4/PWM_2.c ****     *  compare:  New compare value.
 579:Generated_Source\PSoC4/PWM_2.c ****     *
 580:Generated_Source\PSoC4/PWM_2.c ****     * Return:
 581:Generated_Source\PSoC4/PWM_2.c ****     *  None
 582:Generated_Source\PSoC4/PWM_2.c ****     *
 583:Generated_Source\PSoC4/PWM_2.c ****     *******************************************************************************/
 584:Generated_Source\PSoC4/PWM_2.c ****     void PWM_2_WriteCompare2(uint16 compare) \
 585:Generated_Source\PSoC4/PWM_2.c ****                                         
 586:Generated_Source\PSoC4/PWM_2.c ****     {
 178              		.loc 1 586 0
 179              		.cfi_startproc
 180              	.LVL3:
 587:Generated_Source\PSoC4/PWM_2.c ****         #if(PWM_2_UsingFixedFunction)
 588:Generated_Source\PSoC4/PWM_2.c ****             CY_SET_REG16(PWM_2_COMPARE2_LSB_PTR, compare);
 589:Generated_Source\PSoC4/PWM_2.c ****         #else
 590:Generated_Source\PSoC4/PWM_2.c ****             CY_SET_REG16(PWM_2_COMPARE2_LSB_PTR, compare);
 181              		.loc 1 590 0
 182 0000 014B     		ldr	r3, .L20
 183 0002 1880     		strh	r0, [r3]
 591:Generated_Source\PSoC4/PWM_2.c ****         #endif /* (PWM_2_UsingFixedFunction) */
 592:Generated_Source\PSoC4/PWM_2.c ****     }
 184              		.loc 1 592 0
 185              		@ sp needed
 186 0004 7047     		bx	lr
 187              	.L21:
 188 0006 C046     		.align	2
 189              	.L20:
 190 0008 64100F40 		.word	1074729060
 191              		.cfi_endproc
 192              	.LFE11:
 193              		.size	PWM_2_WriteCompare2, .-PWM_2_WriteCompare2
 194              		.section	.text.PWM_2_SetInterruptMode,"ax",%progbits
 195              		.align	2
 196              		.global	PWM_2_SetInterruptMode
 197              		.code	16
 198              		.thumb_func
 199              		.type	PWM_2_SetInterruptMode, %function
 200              	PWM_2_SetInterruptMode:
 201              	.LFB12:
 593:Generated_Source\PSoC4/PWM_2.c **** #endif /* UseOneCompareMode */
 594:Generated_Source\PSoC4/PWM_2.c **** 
 595:Generated_Source\PSoC4/PWM_2.c **** #if (PWM_2_DeadBandUsed)
 596:Generated_Source\PSoC4/PWM_2.c **** 
 597:Generated_Source\PSoC4/PWM_2.c **** 
ARM GAS  C:\Users\a83571\AppData\Local\Temp\ccEBNeug.s 			page 15


 598:Generated_Source\PSoC4/PWM_2.c ****     /*******************************************************************************
 599:Generated_Source\PSoC4/PWM_2.c ****     * Function Name: PWM_2_WriteDeadTime
 600:Generated_Source\PSoC4/PWM_2.c ****     ********************************************************************************
 601:Generated_Source\PSoC4/PWM_2.c ****     *
 602:Generated_Source\PSoC4/PWM_2.c ****     * Summary:
 603:Generated_Source\PSoC4/PWM_2.c ****     *  This function writes the dead-band counts to the corresponding register
 604:Generated_Source\PSoC4/PWM_2.c ****     *
 605:Generated_Source\PSoC4/PWM_2.c ****     * Parameters:
 606:Generated_Source\PSoC4/PWM_2.c ****     *  deadtime:  Number of counts for dead time
 607:Generated_Source\PSoC4/PWM_2.c ****     *
 608:Generated_Source\PSoC4/PWM_2.c ****     * Return:
 609:Generated_Source\PSoC4/PWM_2.c ****     *  None
 610:Generated_Source\PSoC4/PWM_2.c ****     *
 611:Generated_Source\PSoC4/PWM_2.c ****     *******************************************************************************/
 612:Generated_Source\PSoC4/PWM_2.c ****     void PWM_2_WriteDeadTime(uint8 deadtime) 
 613:Generated_Source\PSoC4/PWM_2.c ****     {
 614:Generated_Source\PSoC4/PWM_2.c ****         /* If using the Dead Band 1-255 mode then just write the register */
 615:Generated_Source\PSoC4/PWM_2.c ****         #if(!PWM_2_DeadBand2_4)
 616:Generated_Source\PSoC4/PWM_2.c ****             CY_SET_REG8(PWM_2_DEADBAND_COUNT_PTR, deadtime);
 617:Generated_Source\PSoC4/PWM_2.c ****         #else
 618:Generated_Source\PSoC4/PWM_2.c ****             /* Otherwise the data has to be masked and offset */
 619:Generated_Source\PSoC4/PWM_2.c ****             /* Clear existing data */
 620:Generated_Source\PSoC4/PWM_2.c ****             PWM_2_DEADBAND_COUNT &= ((uint8)(~PWM_2_DEADBAND_COUNT_MASK));
 621:Generated_Source\PSoC4/PWM_2.c **** 
 622:Generated_Source\PSoC4/PWM_2.c ****             /* Set new dead time */
 623:Generated_Source\PSoC4/PWM_2.c ****             #if(PWM_2_DEADBAND_COUNT_SHIFT)
 624:Generated_Source\PSoC4/PWM_2.c ****                 PWM_2_DEADBAND_COUNT |= ((uint8)((uint8)deadtime << PWM_2_DEADBAND_COUNT_SHIFT)) &
 625:Generated_Source\PSoC4/PWM_2.c ****                                                     PWM_2_DEADBAND_COUNT_MASK;
 626:Generated_Source\PSoC4/PWM_2.c ****             #else
 627:Generated_Source\PSoC4/PWM_2.c ****                 PWM_2_DEADBAND_COUNT |= deadtime & PWM_2_DEADBAND_COUNT_MASK;
 628:Generated_Source\PSoC4/PWM_2.c ****             #endif /* (PWM_2_DEADBAND_COUNT_SHIFT) */
 629:Generated_Source\PSoC4/PWM_2.c **** 
 630:Generated_Source\PSoC4/PWM_2.c ****         #endif /* (!PWM_2_DeadBand2_4) */
 631:Generated_Source\PSoC4/PWM_2.c ****     }
 632:Generated_Source\PSoC4/PWM_2.c **** 
 633:Generated_Source\PSoC4/PWM_2.c **** 
 634:Generated_Source\PSoC4/PWM_2.c ****     /*******************************************************************************
 635:Generated_Source\PSoC4/PWM_2.c ****     * Function Name: PWM_2_ReadDeadTime
 636:Generated_Source\PSoC4/PWM_2.c ****     ********************************************************************************
 637:Generated_Source\PSoC4/PWM_2.c ****     *
 638:Generated_Source\PSoC4/PWM_2.c ****     * Summary:
 639:Generated_Source\PSoC4/PWM_2.c ****     *  This function reads the dead-band counts from the corresponding register
 640:Generated_Source\PSoC4/PWM_2.c ****     *
 641:Generated_Source\PSoC4/PWM_2.c ****     * Parameters:
 642:Generated_Source\PSoC4/PWM_2.c ****     *  None
 643:Generated_Source\PSoC4/PWM_2.c ****     *
 644:Generated_Source\PSoC4/PWM_2.c ****     * Return:
 645:Generated_Source\PSoC4/PWM_2.c ****     *  Dead Band Counts
 646:Generated_Source\PSoC4/PWM_2.c ****     *
 647:Generated_Source\PSoC4/PWM_2.c ****     *******************************************************************************/
 648:Generated_Source\PSoC4/PWM_2.c ****     uint8 PWM_2_ReadDeadTime(void) 
 649:Generated_Source\PSoC4/PWM_2.c ****     {
 650:Generated_Source\PSoC4/PWM_2.c ****         /* If using the Dead Band 1-255 mode then just read the register */
 651:Generated_Source\PSoC4/PWM_2.c ****         #if(!PWM_2_DeadBand2_4)
 652:Generated_Source\PSoC4/PWM_2.c ****             return (CY_GET_REG8(PWM_2_DEADBAND_COUNT_PTR));
 653:Generated_Source\PSoC4/PWM_2.c ****         #else
 654:Generated_Source\PSoC4/PWM_2.c **** 
ARM GAS  C:\Users\a83571\AppData\Local\Temp\ccEBNeug.s 			page 16


 655:Generated_Source\PSoC4/PWM_2.c ****             /* Otherwise the data has to be masked and offset */
 656:Generated_Source\PSoC4/PWM_2.c ****             #if(PWM_2_DEADBAND_COUNT_SHIFT)
 657:Generated_Source\PSoC4/PWM_2.c ****                 return ((uint8)(((uint8)(PWM_2_DEADBAND_COUNT & PWM_2_DEADBAND_COUNT_MASK)) >>
 658:Generated_Source\PSoC4/PWM_2.c ****                                                                            PWM_2_DEADBAND_COUNT_SHI
 659:Generated_Source\PSoC4/PWM_2.c ****             #else
 660:Generated_Source\PSoC4/PWM_2.c ****                 return (PWM_2_DEADBAND_COUNT & PWM_2_DEADBAND_COUNT_MASK);
 661:Generated_Source\PSoC4/PWM_2.c ****             #endif /* (PWM_2_DEADBAND_COUNT_SHIFT) */
 662:Generated_Source\PSoC4/PWM_2.c ****         #endif /* (!PWM_2_DeadBand2_4) */
 663:Generated_Source\PSoC4/PWM_2.c ****     }
 664:Generated_Source\PSoC4/PWM_2.c **** #endif /* DeadBandUsed */
 665:Generated_Source\PSoC4/PWM_2.c **** 
 666:Generated_Source\PSoC4/PWM_2.c **** #if (PWM_2_UseStatus || PWM_2_UsingFixedFunction)
 667:Generated_Source\PSoC4/PWM_2.c **** 
 668:Generated_Source\PSoC4/PWM_2.c **** 
 669:Generated_Source\PSoC4/PWM_2.c ****     /*******************************************************************************
 670:Generated_Source\PSoC4/PWM_2.c ****     * Function Name: PWM_2_SetInterruptMode
 671:Generated_Source\PSoC4/PWM_2.c ****     ********************************************************************************
 672:Generated_Source\PSoC4/PWM_2.c ****     *
 673:Generated_Source\PSoC4/PWM_2.c ****     * Summary:
 674:Generated_Source\PSoC4/PWM_2.c ****     *  This function configures the interrupts mask control of theinterrupt
 675:Generated_Source\PSoC4/PWM_2.c ****     *  source status register.
 676:Generated_Source\PSoC4/PWM_2.c ****     *
 677:Generated_Source\PSoC4/PWM_2.c ****     * Parameters:
 678:Generated_Source\PSoC4/PWM_2.c ****     *  uint8 interruptMode: Bit field containing the interrupt sources enabled
 679:Generated_Source\PSoC4/PWM_2.c ****     *
 680:Generated_Source\PSoC4/PWM_2.c ****     * Return:
 681:Generated_Source\PSoC4/PWM_2.c ****     *  None
 682:Generated_Source\PSoC4/PWM_2.c ****     *
 683:Generated_Source\PSoC4/PWM_2.c ****     *******************************************************************************/
 684:Generated_Source\PSoC4/PWM_2.c ****     void PWM_2_SetInterruptMode(uint8 interruptMode) 
 685:Generated_Source\PSoC4/PWM_2.c ****     {
 202              		.loc 1 685 0
 203              		.cfi_startproc
 204              	.LVL4:
 686:Generated_Source\PSoC4/PWM_2.c ****         CY_SET_REG8(PWM_2_STATUS_MASK_PTR, interruptMode);
 205              		.loc 1 686 0
 206 0000 014B     		ldr	r3, .L23
 207 0002 1870     		strb	r0, [r3]
 687:Generated_Source\PSoC4/PWM_2.c ****     }
 208              		.loc 1 687 0
 209              		@ sp needed
 210 0004 7047     		bx	lr
 211              	.L24:
 212 0006 C046     		.align	2
 213              	.L23:
 214 0008 83000F40 		.word	1074724995
 215              		.cfi_endproc
 216              	.LFE12:
 217              		.size	PWM_2_SetInterruptMode, .-PWM_2_SetInterruptMode
 218              		.section	.text.PWM_2_ReadStatusRegister,"ax",%progbits
 219              		.align	2
 220              		.global	PWM_2_ReadStatusRegister
 221              		.code	16
 222              		.thumb_func
 223              		.type	PWM_2_ReadStatusRegister, %function
 224              	PWM_2_ReadStatusRegister:
 225              	.LFB13:
ARM GAS  C:\Users\a83571\AppData\Local\Temp\ccEBNeug.s 			page 17


 688:Generated_Source\PSoC4/PWM_2.c **** 
 689:Generated_Source\PSoC4/PWM_2.c **** 
 690:Generated_Source\PSoC4/PWM_2.c ****     /*******************************************************************************
 691:Generated_Source\PSoC4/PWM_2.c ****     * Function Name: PWM_2_ReadStatusRegister
 692:Generated_Source\PSoC4/PWM_2.c ****     ********************************************************************************
 693:Generated_Source\PSoC4/PWM_2.c ****     *
 694:Generated_Source\PSoC4/PWM_2.c ****     * Summary:
 695:Generated_Source\PSoC4/PWM_2.c ****     *  This function returns the current state of the status register.
 696:Generated_Source\PSoC4/PWM_2.c ****     *
 697:Generated_Source\PSoC4/PWM_2.c ****     * Parameters:
 698:Generated_Source\PSoC4/PWM_2.c ****     *  None
 699:Generated_Source\PSoC4/PWM_2.c ****     *
 700:Generated_Source\PSoC4/PWM_2.c ****     * Return:
 701:Generated_Source\PSoC4/PWM_2.c ****     *  uint8 : Current status register value. The status register bits are:
 702:Generated_Source\PSoC4/PWM_2.c ****     *  [7:6] : Unused(0)
 703:Generated_Source\PSoC4/PWM_2.c ****     *  [5]   : Kill event output
 704:Generated_Source\PSoC4/PWM_2.c ****     *  [4]   : FIFO not empty
 705:Generated_Source\PSoC4/PWM_2.c ****     *  [3]   : FIFO full
 706:Generated_Source\PSoC4/PWM_2.c ****     *  [2]   : Terminal count
 707:Generated_Source\PSoC4/PWM_2.c ****     *  [1]   : Compare output 2
 708:Generated_Source\PSoC4/PWM_2.c ****     *  [0]   : Compare output 1
 709:Generated_Source\PSoC4/PWM_2.c ****     *
 710:Generated_Source\PSoC4/PWM_2.c ****     *******************************************************************************/
 711:Generated_Source\PSoC4/PWM_2.c ****     uint8 PWM_2_ReadStatusRegister(void) 
 712:Generated_Source\PSoC4/PWM_2.c ****     {
 226              		.loc 1 712 0
 227              		.cfi_startproc
 713:Generated_Source\PSoC4/PWM_2.c ****         return (CY_GET_REG8(PWM_2_STATUS_PTR));
 228              		.loc 1 713 0
 229 0000 014B     		ldr	r3, .L26
 230 0002 1878     		ldrb	r0, [r3]
 231 0004 C0B2     		uxtb	r0, r0
 714:Generated_Source\PSoC4/PWM_2.c ****     }
 232              		.loc 1 714 0
 233              		@ sp needed
 234 0006 7047     		bx	lr
 235              	.L27:
 236              		.align	2
 237              	.L26:
 238 0008 63000F40 		.word	1074724963
 239              		.cfi_endproc
 240              	.LFE13:
 241              		.size	PWM_2_ReadStatusRegister, .-PWM_2_ReadStatusRegister
 242              		.section	.text.PWM_2_ReadControlRegister,"ax",%progbits
 243              		.align	2
 244              		.global	PWM_2_ReadControlRegister
 245              		.code	16
 246              		.thumb_func
 247              		.type	PWM_2_ReadControlRegister, %function
 248              	PWM_2_ReadControlRegister:
 249              	.LFB14:
 715:Generated_Source\PSoC4/PWM_2.c **** 
 716:Generated_Source\PSoC4/PWM_2.c **** #endif /* (PWM_2_UseStatus || PWM_2_UsingFixedFunction) */
 717:Generated_Source\PSoC4/PWM_2.c **** 
 718:Generated_Source\PSoC4/PWM_2.c **** 
 719:Generated_Source\PSoC4/PWM_2.c **** #if (PWM_2_UseControl)
 720:Generated_Source\PSoC4/PWM_2.c **** 
ARM GAS  C:\Users\a83571\AppData\Local\Temp\ccEBNeug.s 			page 18


 721:Generated_Source\PSoC4/PWM_2.c **** 
 722:Generated_Source\PSoC4/PWM_2.c ****     /*******************************************************************************
 723:Generated_Source\PSoC4/PWM_2.c ****     * Function Name: PWM_2_ReadControlRegister
 724:Generated_Source\PSoC4/PWM_2.c ****     ********************************************************************************
 725:Generated_Source\PSoC4/PWM_2.c ****     *
 726:Generated_Source\PSoC4/PWM_2.c ****     * Summary:
 727:Generated_Source\PSoC4/PWM_2.c ****     *  Returns the current state of the control register. This API is available
 728:Generated_Source\PSoC4/PWM_2.c ****     *  only if the control register is not removed.
 729:Generated_Source\PSoC4/PWM_2.c ****     *
 730:Generated_Source\PSoC4/PWM_2.c ****     * Parameters:
 731:Generated_Source\PSoC4/PWM_2.c ****     *  None
 732:Generated_Source\PSoC4/PWM_2.c ****     *
 733:Generated_Source\PSoC4/PWM_2.c ****     * Return:
 734:Generated_Source\PSoC4/PWM_2.c ****     *  uint8 : Current control register value
 735:Generated_Source\PSoC4/PWM_2.c ****     *
 736:Generated_Source\PSoC4/PWM_2.c ****     *******************************************************************************/
 737:Generated_Source\PSoC4/PWM_2.c ****     uint8 PWM_2_ReadControlRegister(void) 
 738:Generated_Source\PSoC4/PWM_2.c ****     {
 250              		.loc 1 738 0
 251              		.cfi_startproc
 739:Generated_Source\PSoC4/PWM_2.c ****         uint8 result;
 740:Generated_Source\PSoC4/PWM_2.c **** 
 741:Generated_Source\PSoC4/PWM_2.c ****         result = CY_GET_REG8(PWM_2_CONTROL_PTR);
 252              		.loc 1 741 0
 253 0000 014B     		ldr	r3, .L29
 254 0002 1878     		ldrb	r0, [r3]
 255 0004 C0B2     		uxtb	r0, r0
 256              	.LVL5:
 742:Generated_Source\PSoC4/PWM_2.c ****         return (result);
 743:Generated_Source\PSoC4/PWM_2.c ****     }
 257              		.loc 1 743 0
 258              		@ sp needed
 259 0006 7047     		bx	lr
 260              	.L30:
 261              		.align	2
 262              	.L29:
 263 0008 73000F40 		.word	1074724979
 264              		.cfi_endproc
 265              	.LFE14:
 266              		.size	PWM_2_ReadControlRegister, .-PWM_2_ReadControlRegister
 267              		.section	.text.PWM_2_WriteControlRegister,"ax",%progbits
 268              		.align	2
 269              		.global	PWM_2_WriteControlRegister
 270              		.code	16
 271              		.thumb_func
 272              		.type	PWM_2_WriteControlRegister, %function
 273              	PWM_2_WriteControlRegister:
 274              	.LFB15:
 744:Generated_Source\PSoC4/PWM_2.c **** 
 745:Generated_Source\PSoC4/PWM_2.c **** 
 746:Generated_Source\PSoC4/PWM_2.c ****     /*******************************************************************************
 747:Generated_Source\PSoC4/PWM_2.c ****     * Function Name: PWM_2_WriteControlRegister
 748:Generated_Source\PSoC4/PWM_2.c ****     ********************************************************************************
 749:Generated_Source\PSoC4/PWM_2.c ****     *
 750:Generated_Source\PSoC4/PWM_2.c ****     * Summary:
 751:Generated_Source\PSoC4/PWM_2.c ****     *  Sets the bit field of the control register. This API is available only if
 752:Generated_Source\PSoC4/PWM_2.c ****     *  the control register is not removed.
ARM GAS  C:\Users\a83571\AppData\Local\Temp\ccEBNeug.s 			page 19


 753:Generated_Source\PSoC4/PWM_2.c ****     *
 754:Generated_Source\PSoC4/PWM_2.c ****     * Parameters:
 755:Generated_Source\PSoC4/PWM_2.c ****     *  uint8 control: Control register bit field, The status register bits are:
 756:Generated_Source\PSoC4/PWM_2.c ****     *  [7]   : PWM Enable
 757:Generated_Source\PSoC4/PWM_2.c ****     *  [6]   : Reset
 758:Generated_Source\PSoC4/PWM_2.c ****     *  [5:3] : Compare Mode2
 759:Generated_Source\PSoC4/PWM_2.c ****     *  [2:0] : Compare Mode2
 760:Generated_Source\PSoC4/PWM_2.c ****     *
 761:Generated_Source\PSoC4/PWM_2.c ****     * Return:
 762:Generated_Source\PSoC4/PWM_2.c ****     *  None
 763:Generated_Source\PSoC4/PWM_2.c ****     *
 764:Generated_Source\PSoC4/PWM_2.c ****     *******************************************************************************/
 765:Generated_Source\PSoC4/PWM_2.c ****     void PWM_2_WriteControlRegister(uint8 control) 
 766:Generated_Source\PSoC4/PWM_2.c ****     {
 275              		.loc 1 766 0
 276              		.cfi_startproc
 277              	.LVL6:
 767:Generated_Source\PSoC4/PWM_2.c ****         CY_SET_REG8(PWM_2_CONTROL_PTR, control);
 278              		.loc 1 767 0
 279 0000 014B     		ldr	r3, .L32
 280 0002 1870     		strb	r0, [r3]
 768:Generated_Source\PSoC4/PWM_2.c ****     }
 281              		.loc 1 768 0
 282              		@ sp needed
 283 0004 7047     		bx	lr
 284              	.L33:
 285 0006 C046     		.align	2
 286              	.L32:
 287 0008 73000F40 		.word	1074724979
 288              		.cfi_endproc
 289              	.LFE15:
 290              		.size	PWM_2_WriteControlRegister, .-PWM_2_WriteControlRegister
 291              		.section	.text.PWM_2_ReadCapture,"ax",%progbits
 292              		.align	2
 293              		.global	PWM_2_ReadCapture
 294              		.code	16
 295              		.thumb_func
 296              		.type	PWM_2_ReadCapture, %function
 297              	PWM_2_ReadCapture:
 298              	.LFB16:
 769:Generated_Source\PSoC4/PWM_2.c **** 
 770:Generated_Source\PSoC4/PWM_2.c **** #endif /* (PWM_2_UseControl) */
 771:Generated_Source\PSoC4/PWM_2.c **** 
 772:Generated_Source\PSoC4/PWM_2.c **** 
 773:Generated_Source\PSoC4/PWM_2.c **** #if (!PWM_2_UsingFixedFunction)
 774:Generated_Source\PSoC4/PWM_2.c **** 
 775:Generated_Source\PSoC4/PWM_2.c **** 
 776:Generated_Source\PSoC4/PWM_2.c ****     /*******************************************************************************
 777:Generated_Source\PSoC4/PWM_2.c ****     * Function Name: PWM_2_ReadCapture
 778:Generated_Source\PSoC4/PWM_2.c ****     ********************************************************************************
 779:Generated_Source\PSoC4/PWM_2.c ****     *
 780:Generated_Source\PSoC4/PWM_2.c ****     * Summary:
 781:Generated_Source\PSoC4/PWM_2.c ****     *  Reads the capture value from the capture FIFO.
 782:Generated_Source\PSoC4/PWM_2.c ****     *
 783:Generated_Source\PSoC4/PWM_2.c ****     * Parameters:
 784:Generated_Source\PSoC4/PWM_2.c ****     *  None
 785:Generated_Source\PSoC4/PWM_2.c ****     *
ARM GAS  C:\Users\a83571\AppData\Local\Temp\ccEBNeug.s 			page 20


 786:Generated_Source\PSoC4/PWM_2.c ****     * Return:
 787:Generated_Source\PSoC4/PWM_2.c ****     *  uint8/uint16: The current capture value
 788:Generated_Source\PSoC4/PWM_2.c ****     *
 789:Generated_Source\PSoC4/PWM_2.c ****     *******************************************************************************/
 790:Generated_Source\PSoC4/PWM_2.c ****     uint16 PWM_2_ReadCapture(void) 
 791:Generated_Source\PSoC4/PWM_2.c ****     {
 299              		.loc 1 791 0
 300              		.cfi_startproc
 792:Generated_Source\PSoC4/PWM_2.c ****         return (CY_GET_REG16(PWM_2_CAPTURE_LSB_PTR));
 301              		.loc 1 792 0
 302 0000 014B     		ldr	r3, .L35
 303 0002 1888     		ldrh	r0, [r3]
 304 0004 80B2     		uxth	r0, r0
 793:Generated_Source\PSoC4/PWM_2.c ****     }
 305              		.loc 1 793 0
 306              		@ sp needed
 307 0006 7047     		bx	lr
 308              	.L36:
 309              		.align	2
 310              	.L35:
 311 0008 A4100F40 		.word	1074729124
 312              		.cfi_endproc
 313              	.LFE16:
 314              		.size	PWM_2_ReadCapture, .-PWM_2_ReadCapture
 315              		.section	.text.PWM_2_ClearFIFO,"ax",%progbits
 316              		.align	2
 317              		.global	PWM_2_ClearFIFO
 318              		.code	16
 319              		.thumb_func
 320              		.type	PWM_2_ClearFIFO, %function
 321              	PWM_2_ClearFIFO:
 322              	.LFB8:
 454:Generated_Source\PSoC4/PWM_2.c ****             while(0u != (PWM_2_ReadStatusRegister() & PWM_2_STATUS_FIFONEMPTY))
 323              		.loc 1 454 0
 324              		.cfi_startproc
 325 0000 08B5     		push	{r3, lr}
 326              		.cfi_def_cfa_offset 8
 327              		.cfi_offset 3, -8
 328              		.cfi_offset 14, -4
 455:Generated_Source\PSoC4/PWM_2.c ****             {
 329              		.loc 1 455 0
 330 0002 01E0     		b	.L38
 331              	.L39:
 457:Generated_Source\PSoC4/PWM_2.c ****             }
 332              		.loc 1 457 0
 333 0004 FFF7FEFF 		bl	PWM_2_ReadCapture
 334              	.LVL7:
 335              	.L38:
 455:Generated_Source\PSoC4/PWM_2.c ****             {
 336              		.loc 1 455 0
 337 0008 FFF7FEFF 		bl	PWM_2_ReadStatusRegister
 338              	.LVL8:
 339 000c C306     		lsl	r3, r0, #27
 340 000e F9D4     		bmi	.L39
 459:Generated_Source\PSoC4/PWM_2.c **** 
 341              		.loc 1 459 0
 342              		@ sp needed
ARM GAS  C:\Users\a83571\AppData\Local\Temp\ccEBNeug.s 			page 21


 343 0010 08BD     		pop	{r3, pc}
 344              		.cfi_endproc
 345              	.LFE8:
 346              		.size	PWM_2_ClearFIFO, .-PWM_2_ClearFIFO
 347 0012 C046     		.section	.text.PWM_2_Init,"ax",%progbits
 348              		.align	2
 349              		.global	PWM_2_Init
 350              		.code	16
 351              		.thumb_func
 352              		.type	PWM_2_Init, %function
 353              	PWM_2_Init:
 354              	.LFB3:
  85:Generated_Source\PSoC4/PWM_2.c ****     #if (PWM_2_UsingFixedFunction || PWM_2_UseControl)
 355              		.loc 1 85 0
 356              		.cfi_startproc
 357 0000 38B5     		push	{r3, r4, r5, lr}
 358              		.cfi_def_cfa_offset 16
 359              		.cfi_offset 3, -16
 360              		.cfi_offset 4, -12
 361              		.cfi_offset 5, -8
 362              		.cfi_offset 14, -4
 117:Generated_Source\PSoC4/PWM_2.c ****                 ((uint8)(~PWM_2_CTRL_CMPMODE1_MASK));
 363              		.loc 1 117 0
 364 0002 1649     		ldr	r1, .L41
 365 0004 0B78     		ldrb	r3, [r1]
 366 0006 3F22     		mov	r2, #63
 367 0008 9343     		bic	r3, r2
 368              	.LVL9:
 119:Generated_Source\PSoC4/PWM_2.c ****                                    PWM_2_DEFAULT_COMPARE1_MODE;
 369              		.loc 1 119 0
 370 000a 343A     		sub	r2, r2, #52
 371 000c 1343     		orr	r3, r2
 372              	.LVL10:
 373 000e 0B70     		strb	r3, [r1]
 129:Generated_Source\PSoC4/PWM_2.c ****             PWM_2_AUX_CONTROLDP1 |= (PWM_2_AUX_CTRL_FIFO0_CLR);
 374              		.loc 1 129 0
 375 0010 1349     		ldr	r1, .L41+4
 376 0012 0A78     		ldrb	r2, [r1]
 377 0014 0123     		mov	r3, #1
 378 0016 1A43     		orr	r2, r3
 379 0018 D2B2     		uxtb	r2, r2
 380 001a 0A70     		strb	r2, [r1]
 130:Generated_Source\PSoC4/PWM_2.c ****         #endif /* (PWM_2_Resolution == 8) */
 381              		.loc 1 130 0
 382 001c 114C     		ldr	r4, .L41+8
 383 001e 2278     		ldrb	r2, [r4]
 384 0020 1343     		orr	r3, r2
 385 0022 DBB2     		uxtb	r3, r3
 386 0024 2370     		strb	r3, [r4]
 133:Generated_Source\PSoC4/PWM_2.c ****     #endif /* (!PWM_2_UsingFixedFunction) */
 387              		.loc 1 133 0
 388 0026 104D     		ldr	r5, .L41+12
 389 0028 281C     		mov	r0, r5
 390 002a FFF7FEFF 		bl	PWM_2_WriteCounter
 391              	.LVL11:
 136:Generated_Source\PSoC4/PWM_2.c **** 
 392              		.loc 1 136 0
ARM GAS  C:\Users\a83571\AppData\Local\Temp\ccEBNeug.s 			page 22


 393 002e 281C     		mov	r0, r5
 394 0030 FFF7FEFF 		bl	PWM_2_WritePeriod
 395              	.LVL12:
 141:Generated_Source\PSoC4/PWM_2.c ****             PWM_2_WriteCompare2(PWM_2_INIT_COMPARE_VALUE2);
 396              		.loc 1 141 0
 397 0034 0020     		mov	r0, #0
 398 0036 FFF7FEFF 		bl	PWM_2_WriteCompare1
 399              	.LVL13:
 142:Generated_Source\PSoC4/PWM_2.c ****         #endif /* (PWM_2_UseOneCompareMode) */
 400              		.loc 1 142 0
 401 003a 0920     		mov	r0, #9
 402 003c FFF7FEFF 		bl	PWM_2_WriteCompare2
 403              	.LVL14:
 154:Generated_Source\PSoC4/PWM_2.c ****     #endif /* (PWM_2_UseStatus || PWM_2_UsingFixedFunction) */
 404              		.loc 1 154 0
 405 0040 0020     		mov	r0, #0
 406 0042 FFF7FEFF 		bl	PWM_2_SetInterruptMode
 407              	.LVL15:
 167:Generated_Source\PSoC4/PWM_2.c ****             /* Use the interrupt output of the status register for IRQ output */
 408              		.loc 1 167 0
 409 0046 FFF7FEFF 		bl	CyEnterCriticalSection
 410              	.LVL16:
 169:Generated_Source\PSoC4/PWM_2.c **** 
 411              		.loc 1 169 0
 412 004a 2278     		ldrb	r2, [r4]
 413 004c 1023     		mov	r3, #16
 414 004e 1343     		orr	r3, r2
 415 0050 2370     		strb	r3, [r4]
 172:Generated_Source\PSoC4/PWM_2.c **** 
 416              		.loc 1 172 0
 417 0052 FFF7FEFF 		bl	CyExitCriticalSection
 418              	.LVL17:
 176:Generated_Source\PSoC4/PWM_2.c ****         #endif /* (PWM_2_UseStatus) */
 419              		.loc 1 176 0
 420 0056 FFF7FEFF 		bl	PWM_2_ClearFIFO
 421              	.LVL18:
 179:Generated_Source\PSoC4/PWM_2.c **** 
 422              		.loc 1 179 0
 423              		@ sp needed
 424 005a 38BD     		pop	{r3, r4, r5, pc}
 425              	.L42:
 426              		.align	2
 427              	.L41:
 428 005c 73000F40 		.word	1074724979
 429 0060 92000F40 		.word	1074725010
 430 0064 93000F40 		.word	1074725011
 431 0068 01FE0000 		.word	65025
 432              		.cfi_endproc
 433              	.LFE3:
 434              		.size	PWM_2_Init, .-PWM_2_Init
 435              		.section	.text.PWM_2_Start,"ax",%progbits
 436              		.align	2
 437              		.global	PWM_2_Start
 438              		.code	16
 439              		.thumb_func
 440              		.type	PWM_2_Start, %function
 441              	PWM_2_Start:
ARM GAS  C:\Users\a83571\AppData\Local\Temp\ccEBNeug.s 			page 23


 442              	.LFB2:
  56:Generated_Source\PSoC4/PWM_2.c ****     /* If not Initialized then initialize all required hardware and software */
 443              		.loc 1 56 0
 444              		.cfi_startproc
 445 0000 08B5     		push	{r3, lr}
 446              		.cfi_def_cfa_offset 8
 447              		.cfi_offset 3, -8
 448              		.cfi_offset 14, -4
  58:Generated_Source\PSoC4/PWM_2.c ****     {
 449              		.loc 1 58 0
 450 0002 064B     		ldr	r3, .L45
 451 0004 1B78     		ldrb	r3, [r3]
 452 0006 002B     		cmp	r3, #0
 453 0008 04D1     		bne	.L44
  60:Generated_Source\PSoC4/PWM_2.c ****         PWM_2_initVar = 1u;
 454              		.loc 1 60 0
 455 000a FFF7FEFF 		bl	PWM_2_Init
 456              	.LVL19:
  61:Generated_Source\PSoC4/PWM_2.c ****     }
 457              		.loc 1 61 0
 458 000e 0122     		mov	r2, #1
 459 0010 024B     		ldr	r3, .L45
 460 0012 1A70     		strb	r2, [r3]
 461              	.L44:
  63:Generated_Source\PSoC4/PWM_2.c **** 
 462              		.loc 1 63 0
 463 0014 FFF7FEFF 		bl	PWM_2_Enable
 464              	.LVL20:
  65:Generated_Source\PSoC4/PWM_2.c **** 
 465              		.loc 1 65 0
 466              		@ sp needed
 467 0018 08BD     		pop	{r3, pc}
 468              	.L46:
 469 001a C046     		.align	2
 470              	.L45:
 471 001c 00000000 		.word	.LANCHOR0
 472              		.cfi_endproc
 473              	.LFE2:
 474              		.size	PWM_2_Start, .-PWM_2_Start
 475              		.section	.text.PWM_2_ReadCompare1,"ax",%progbits
 476              		.align	2
 477              		.global	PWM_2_ReadCompare1
 478              		.code	16
 479              		.thumb_func
 480              		.type	PWM_2_ReadCompare1, %function
 481              	PWM_2_ReadCompare1:
 482              	.LFB17:
 794:Generated_Source\PSoC4/PWM_2.c **** 
 795:Generated_Source\PSoC4/PWM_2.c **** #endif /* (!PWM_2_UsingFixedFunction) */
 796:Generated_Source\PSoC4/PWM_2.c **** 
 797:Generated_Source\PSoC4/PWM_2.c **** 
 798:Generated_Source\PSoC4/PWM_2.c **** #if (PWM_2_UseOneCompareMode)
 799:Generated_Source\PSoC4/PWM_2.c **** 
 800:Generated_Source\PSoC4/PWM_2.c **** 
 801:Generated_Source\PSoC4/PWM_2.c ****     /*******************************************************************************
 802:Generated_Source\PSoC4/PWM_2.c ****     * Function Name: PWM_2_ReadCompare
 803:Generated_Source\PSoC4/PWM_2.c ****     ********************************************************************************
ARM GAS  C:\Users\a83571\AppData\Local\Temp\ccEBNeug.s 			page 24


 804:Generated_Source\PSoC4/PWM_2.c ****     *
 805:Generated_Source\PSoC4/PWM_2.c ****     * Summary:
 806:Generated_Source\PSoC4/PWM_2.c ****     *  Reads the compare value for the compare output when the PWM Mode parameter is
 807:Generated_Source\PSoC4/PWM_2.c ****     *  set to Dither mode, Center Aligned mode, or One Output mode.
 808:Generated_Source\PSoC4/PWM_2.c ****     *
 809:Generated_Source\PSoC4/PWM_2.c ****     * Parameters:
 810:Generated_Source\PSoC4/PWM_2.c ****     *  None
 811:Generated_Source\PSoC4/PWM_2.c ****     *
 812:Generated_Source\PSoC4/PWM_2.c ****     * Return:
 813:Generated_Source\PSoC4/PWM_2.c ****     *  uint8/uint16: Current compare value
 814:Generated_Source\PSoC4/PWM_2.c ****     *
 815:Generated_Source\PSoC4/PWM_2.c ****     *******************************************************************************/
 816:Generated_Source\PSoC4/PWM_2.c ****     uint16 PWM_2_ReadCompare(void) 
 817:Generated_Source\PSoC4/PWM_2.c ****     {
 818:Generated_Source\PSoC4/PWM_2.c ****         #if(PWM_2_UsingFixedFunction)
 819:Generated_Source\PSoC4/PWM_2.c ****             return ((uint16)CY_GET_REG16(PWM_2_COMPARE1_LSB_PTR));
 820:Generated_Source\PSoC4/PWM_2.c ****         #else
 821:Generated_Source\PSoC4/PWM_2.c ****             return (CY_GET_REG16(PWM_2_COMPARE1_LSB_PTR));
 822:Generated_Source\PSoC4/PWM_2.c ****         #endif /* (PWM_2_UsingFixedFunction) */
 823:Generated_Source\PSoC4/PWM_2.c ****     }
 824:Generated_Source\PSoC4/PWM_2.c **** 
 825:Generated_Source\PSoC4/PWM_2.c **** #else
 826:Generated_Source\PSoC4/PWM_2.c **** 
 827:Generated_Source\PSoC4/PWM_2.c **** 
 828:Generated_Source\PSoC4/PWM_2.c ****     /*******************************************************************************
 829:Generated_Source\PSoC4/PWM_2.c ****     * Function Name: PWM_2_ReadCompare1
 830:Generated_Source\PSoC4/PWM_2.c ****     ********************************************************************************
 831:Generated_Source\PSoC4/PWM_2.c ****     *
 832:Generated_Source\PSoC4/PWM_2.c ****     * Summary:
 833:Generated_Source\PSoC4/PWM_2.c ****     *  Reads the compare value for the compare1 output.
 834:Generated_Source\PSoC4/PWM_2.c ****     *
 835:Generated_Source\PSoC4/PWM_2.c ****     * Parameters:
 836:Generated_Source\PSoC4/PWM_2.c ****     *  None
 837:Generated_Source\PSoC4/PWM_2.c ****     *
 838:Generated_Source\PSoC4/PWM_2.c ****     * Return:
 839:Generated_Source\PSoC4/PWM_2.c ****     *  uint8/uint16: Current compare value.
 840:Generated_Source\PSoC4/PWM_2.c ****     *
 841:Generated_Source\PSoC4/PWM_2.c ****     *******************************************************************************/
 842:Generated_Source\PSoC4/PWM_2.c ****     uint16 PWM_2_ReadCompare1(void) 
 843:Generated_Source\PSoC4/PWM_2.c ****     {
 483              		.loc 1 843 0
 484              		.cfi_startproc
 844:Generated_Source\PSoC4/PWM_2.c ****         return (CY_GET_REG16(PWM_2_COMPARE1_LSB_PTR));
 485              		.loc 1 844 0
 486 0000 014B     		ldr	r3, .L48
 487 0002 1888     		ldrh	r0, [r3]
 488 0004 80B2     		uxth	r0, r0
 845:Generated_Source\PSoC4/PWM_2.c ****     }
 489              		.loc 1 845 0
 490              		@ sp needed
 491 0006 7047     		bx	lr
 492              	.L49:
 493              		.align	2
 494              	.L48:
 495 0008 44100F40 		.word	1074729028
 496              		.cfi_endproc
 497              	.LFE17:
ARM GAS  C:\Users\a83571\AppData\Local\Temp\ccEBNeug.s 			page 25


 498              		.size	PWM_2_ReadCompare1, .-PWM_2_ReadCompare1
 499              		.section	.text.PWM_2_ReadCompare2,"ax",%progbits
 500              		.align	2
 501              		.global	PWM_2_ReadCompare2
 502              		.code	16
 503              		.thumb_func
 504              		.type	PWM_2_ReadCompare2, %function
 505              	PWM_2_ReadCompare2:
 506              	.LFB18:
 846:Generated_Source\PSoC4/PWM_2.c **** 
 847:Generated_Source\PSoC4/PWM_2.c **** 
 848:Generated_Source\PSoC4/PWM_2.c ****     /*******************************************************************************
 849:Generated_Source\PSoC4/PWM_2.c ****     * Function Name: PWM_2_ReadCompare2
 850:Generated_Source\PSoC4/PWM_2.c ****     ********************************************************************************
 851:Generated_Source\PSoC4/PWM_2.c ****     *
 852:Generated_Source\PSoC4/PWM_2.c ****     * Summary:
 853:Generated_Source\PSoC4/PWM_2.c ****     *  Reads the compare value for the compare2 output.
 854:Generated_Source\PSoC4/PWM_2.c ****     *
 855:Generated_Source\PSoC4/PWM_2.c ****     * Parameters:
 856:Generated_Source\PSoC4/PWM_2.c ****     *  None
 857:Generated_Source\PSoC4/PWM_2.c ****     *
 858:Generated_Source\PSoC4/PWM_2.c ****     * Return:
 859:Generated_Source\PSoC4/PWM_2.c ****     *  uint8/uint16: Current compare value.
 860:Generated_Source\PSoC4/PWM_2.c ****     *
 861:Generated_Source\PSoC4/PWM_2.c ****     *******************************************************************************/
 862:Generated_Source\PSoC4/PWM_2.c ****     uint16 PWM_2_ReadCompare2(void) 
 863:Generated_Source\PSoC4/PWM_2.c ****     {
 507              		.loc 1 863 0
 508              		.cfi_startproc
 864:Generated_Source\PSoC4/PWM_2.c ****         return (CY_GET_REG16(PWM_2_COMPARE2_LSB_PTR));
 509              		.loc 1 864 0
 510 0000 014B     		ldr	r3, .L51
 511 0002 1888     		ldrh	r0, [r3]
 512 0004 80B2     		uxth	r0, r0
 865:Generated_Source\PSoC4/PWM_2.c ****     }
 513              		.loc 1 865 0
 514              		@ sp needed
 515 0006 7047     		bx	lr
 516              	.L52:
 517              		.align	2
 518              	.L51:
 519 0008 64100F40 		.word	1074729060
 520              		.cfi_endproc
 521              	.LFE18:
 522              		.size	PWM_2_ReadCompare2, .-PWM_2_ReadCompare2
 523              		.section	.text.PWM_2_ReadPeriod,"ax",%progbits
 524              		.align	2
 525              		.global	PWM_2_ReadPeriod
 526              		.code	16
 527              		.thumb_func
 528              		.type	PWM_2_ReadPeriod, %function
 529              	PWM_2_ReadPeriod:
 530              	.LFB19:
 866:Generated_Source\PSoC4/PWM_2.c **** 
 867:Generated_Source\PSoC4/PWM_2.c **** #endif /* (PWM_2_UseOneCompareMode) */
 868:Generated_Source\PSoC4/PWM_2.c **** 
 869:Generated_Source\PSoC4/PWM_2.c **** 
ARM GAS  C:\Users\a83571\AppData\Local\Temp\ccEBNeug.s 			page 26


 870:Generated_Source\PSoC4/PWM_2.c **** /*******************************************************************************
 871:Generated_Source\PSoC4/PWM_2.c **** * Function Name: PWM_2_ReadPeriod
 872:Generated_Source\PSoC4/PWM_2.c **** ********************************************************************************
 873:Generated_Source\PSoC4/PWM_2.c **** *
 874:Generated_Source\PSoC4/PWM_2.c **** * Summary:
 875:Generated_Source\PSoC4/PWM_2.c **** *  Reads the period value used by the PWM hardware.
 876:Generated_Source\PSoC4/PWM_2.c **** *
 877:Generated_Source\PSoC4/PWM_2.c **** * Parameters:
 878:Generated_Source\PSoC4/PWM_2.c **** *  None
 879:Generated_Source\PSoC4/PWM_2.c **** *
 880:Generated_Source\PSoC4/PWM_2.c **** * Return:
 881:Generated_Source\PSoC4/PWM_2.c **** *  uint8/16: Period value
 882:Generated_Source\PSoC4/PWM_2.c **** *
 883:Generated_Source\PSoC4/PWM_2.c **** *******************************************************************************/
 884:Generated_Source\PSoC4/PWM_2.c **** uint16 PWM_2_ReadPeriod(void) 
 885:Generated_Source\PSoC4/PWM_2.c **** {
 531              		.loc 1 885 0
 532              		.cfi_startproc
 886:Generated_Source\PSoC4/PWM_2.c ****     #if(PWM_2_UsingFixedFunction)
 887:Generated_Source\PSoC4/PWM_2.c ****         return ((uint16)CY_GET_REG16(PWM_2_PERIOD_LSB_PTR));
 888:Generated_Source\PSoC4/PWM_2.c ****     #else
 889:Generated_Source\PSoC4/PWM_2.c ****         return (CY_GET_REG16(PWM_2_PERIOD_LSB_PTR));
 533              		.loc 1 889 0
 534 0000 014B     		ldr	r3, .L54
 535 0002 1888     		ldrh	r0, [r3]
 536 0004 80B2     		uxth	r0, r0
 890:Generated_Source\PSoC4/PWM_2.c ****     #endif /* (PWM_2_UsingFixedFunction) */
 891:Generated_Source\PSoC4/PWM_2.c **** }
 537              		.loc 1 891 0
 538              		@ sp needed
 539 0006 7047     		bx	lr
 540              	.L55:
 541              		.align	2
 542              	.L54:
 543 0008 84100F40 		.word	1074729092
 544              		.cfi_endproc
 545              	.LFE19:
 546              		.size	PWM_2_ReadPeriod, .-PWM_2_ReadPeriod
 547              		.global	PWM_2_initVar
 548              		.bss
 549              		.set	.LANCHOR0,. + 0
 550              		.type	PWM_2_initVar, %object
 551              		.size	PWM_2_initVar, 1
 552              	PWM_2_initVar:
 553 0000 00       		.space	1
 554              		.text
 555              	.Letext0:
 556              		.file 2 "Generated_Source\\PSoC4\\cytypes.h"
 557              		.file 3 "Generated_Source\\PSoC4\\CyLib.h"