ARM GAS  C:\Users\a83571\AppData\Local\Temp\cceaSYZ4.s 			page 1


   1              		.cpu cortex-m0
   2              		.fpu softvfp
   3              		.eabi_attribute 20, 1
   4              		.eabi_attribute 21, 1
   5              		.eabi_attribute 23, 3
   6              		.eabi_attribute 24, 1
   7              		.eabi_attribute 25, 1
   8              		.eabi_attribute 26, 1
   9              		.eabi_attribute 30, 1
  10              		.eabi_attribute 34, 0
  11              		.eabi_attribute 18, 4
  12              		.code	16
  13              		.file	"Slider.c"
  14              		.text
  15              	.Ltext0:
  16              		.cfi_sections	.debug_frame
  17              		.section	.text.Slider_Init,"ax",%progbits
  18              		.align	2
  19              		.global	Slider_Init
  20              		.code	16
  21              		.thumb_func
  22              		.type	Slider_Init, %function
  23              	Slider_Init:
  24              	.LFB37:
  25              		.file 1 "Slider.c"
   1:Slider.c      **** /* ========================================
   2:Slider.c      ****  *
   3:Slider.c      ****  * Copyright YOUR COMPANY, THE YEAR
   4:Slider.c      ****  * All Rights Reserved
   5:Slider.c      ****  * UNPUBLISHED, LICENSED SOFTWARE.
   6:Slider.c      ****  *
   7:Slider.c      ****  * CONFIDENTIAL AND PROPRIETARY INFORMATION
   8:Slider.c      ****  * WHICH IS THE PROPERTY OF your company.
   9:Slider.c      ****  *
  10:Slider.c      ****  * ========================================
  11:Slider.c      **** */
  12:Slider.c      **** #include <project.h>
  13:Slider.c      **** #include "Slider.h"
  14:Slider.c      **** 
  15:Slider.c      **** static uint8 sliderNotifyEnable = 0;
  16:Slider.c      **** 
  17:Slider.c      **** void Slider_Init()
  18:Slider.c      **** {
  26              		.loc 1 18 0
  27              		.cfi_startproc
  28 0000 08B5     		push	{r3, lr}
  29              		.cfi_def_cfa_offset 8
  30              		.cfi_offset 3, -8
  31              		.cfi_offset 14, -4
  19:Slider.c      ****     CapSense_Start();
  32              		.loc 1 19 0
  33 0002 FFF7FEFF 		bl	CapSense_Start
  34              	.LVL0:
  20:Slider.c      ****     //CapSense_Enable();
  21:Slider.c      ****     /* Initialize baselines */
  22:Slider.c      ****     CapSense_InitializeEnabledBaselines();
  35              		.loc 1 22 0
ARM GAS  C:\Users\a83571\AppData\Local\Temp\cceaSYZ4.s 			page 2


  36 0006 FFF7FEFF 		bl	CapSense_InitializeEnabledBaselines
  37              	.LVL1:
  23:Slider.c      ****     CapSense_EnableWidget(CapSense_SLIDER_0__LS);
  38              		.loc 1 23 0
  39 000a 0020     		mov	r0, #0
  40 000c FFF7FEFF 		bl	CapSense_EnableWidget
  41              	.LVL2:
  24:Slider.c      ****     CapSense_ScanWidget(CapSense_SLIDER_0__LS);
  42              		.loc 1 24 0
  43 0010 0020     		mov	r0, #0
  44 0012 FFF7FEFF 		bl	CapSense_ScanWidget
  45              	.LVL3:
  25:Slider.c      **** }
  46              		.loc 1 25 0
  47              		@ sp needed
  48 0016 08BD     		pop	{r3, pc}
  49              		.cfi_endproc
  50              	.LFE37:
  51              		.size	Slider_Init, .-Slider_Init
  52              		.section	.text.Slider_EnableNotification,"ax",%progbits
  53              		.align	2
  54              		.global	Slider_EnableNotification
  55              		.code	16
  56              		.thumb_func
  57              		.type	Slider_EnableNotification, %function
  58              	Slider_EnableNotification:
  59              	.LFB39:
  26:Slider.c      **** 
  27:Slider.c      **** uint16 Slider_GetValue()
  28:Slider.c      **** {
  29:Slider.c      ****     CYBLE_GATT_HANDLE_VALUE_PAIR_T sliderDataHandle;
  30:Slider.c      ****     uint16 capSenseData;
  31:Slider.c      ****     uint8 sliderPos;
  32:Slider.c      ****     if (CapSense_IsBusy() == 0)
  33:Slider.c      ****     {
  34:Slider.c      ****         CapSense_UpdateEnabledBaselines();
  35:Slider.c      ****         CapSense_ScanWidget(CapSense_SLIDER_0__LS);
  36:Slider.c      ****     }
  37:Slider.c      ****     capSenseData =  CapSense_GetCentroidPos(CapSense_SLIDER_0__LS);
  38:Slider.c      ****     if (capSenseData != 0xFFFF)
  39:Slider.c      ****     {
  40:Slider.c      ****         sliderPos = (uint8)capSenseData;
  41:Slider.c      ****         sliderDataHandle.attrHandle = CYBLE_CAPSLIDER_SLIDER_POS_CHAR_HANDLE;
  42:Slider.c      ****         sliderDataHandle.value.len = sizeof(uint8);
  43:Slider.c      ****         sliderDataHandle.value.val = &sliderPos;
  44:Slider.c      ****         // update gatt database
  45:Slider.c      ****         CyBle_GattsWriteAttributeValue(&sliderDataHandle, 0, &cyBle_connHandle, CYBLE_GATT_DB_LOCAL
  46:Slider.c      ****     }
  47:Slider.c      ****     if ((Slider_IsNotifyEnabled() == 1) && (capSenseData != 0xFFFF))
  48:Slider.c      ****     {        
  49:Slider.c      ****         // Send Notification
  50:Slider.c      ****         CyBle_GattsNotification(cyBle_connHandle, (CYBLE_GATTS_HANDLE_VALUE_NTF_T*)&sliderDataHandl
  51:Slider.c      ****     }
  52:Slider.c      ****     return capSenseData;
  53:Slider.c      **** }
  54:Slider.c      **** 
  55:Slider.c      **** void Slider_EnableNotification()
ARM GAS  C:\Users\a83571\AppData\Local\Temp\cceaSYZ4.s 			page 3


  56:Slider.c      **** {
  60              		.loc 1 56 0
  61              		.cfi_startproc
  57:Slider.c      ****     sliderNotifyEnable = 1;
  62              		.loc 1 57 0
  63 0000 0122     		mov	r2, #1
  64 0002 014B     		ldr	r3, .L3
  65 0004 1A70     		strb	r2, [r3]
  58:Slider.c      **** }
  66              		.loc 1 58 0
  67              		@ sp needed
  68 0006 7047     		bx	lr
  69              	.L4:
  70              		.align	2
  71              	.L3:
  72 0008 00000000 		.word	.LANCHOR0
  73              		.cfi_endproc
  74              	.LFE39:
  75              		.size	Slider_EnableNotification, .-Slider_EnableNotification
  76              		.section	.text.Slider_DisableNotification,"ax",%progbits
  77              		.align	2
  78              		.global	Slider_DisableNotification
  79              		.code	16
  80              		.thumb_func
  81              		.type	Slider_DisableNotification, %function
  82              	Slider_DisableNotification:
  83              	.LFB40:
  59:Slider.c      **** 
  60:Slider.c      **** void Slider_DisableNotification()
  61:Slider.c      **** {
  84              		.loc 1 61 0
  85              		.cfi_startproc
  62:Slider.c      ****     sliderNotifyEnable = 0;
  86              		.loc 1 62 0
  87 0000 0022     		mov	r2, #0
  88 0002 014B     		ldr	r3, .L6
  89 0004 1A70     		strb	r2, [r3]
  63:Slider.c      **** }
  90              		.loc 1 63 0
  91              		@ sp needed
  92 0006 7047     		bx	lr
  93              	.L7:
  94              		.align	2
  95              	.L6:
  96 0008 00000000 		.word	.LANCHOR0
  97              		.cfi_endproc
  98              	.LFE40:
  99              		.size	Slider_DisableNotification, .-Slider_DisableNotification
 100              		.section	.text.Slider_IsNotifyEnabled,"ax",%progbits
 101              		.align	2
 102              		.global	Slider_IsNotifyEnabled
 103              		.code	16
 104              		.thumb_func
 105              		.type	Slider_IsNotifyEnabled, %function
 106              	Slider_IsNotifyEnabled:
 107              	.LFB41:
  64:Slider.c      **** 
ARM GAS  C:\Users\a83571\AppData\Local\Temp\cceaSYZ4.s 			page 4


  65:Slider.c      **** uint8 Slider_IsNotifyEnabled()
  66:Slider.c      **** {
 108              		.loc 1 66 0
 109              		.cfi_startproc
  67:Slider.c      ****     return sliderNotifyEnable;
 110              		.loc 1 67 0
 111 0000 014B     		ldr	r3, .L9
 112 0002 1878     		ldrb	r0, [r3]
  68:Slider.c      **** }
 113              		.loc 1 68 0
 114              		@ sp needed
 115 0004 7047     		bx	lr
 116              	.L10:
 117 0006 C046     		.align	2
 118              	.L9:
 119 0008 00000000 		.word	.LANCHOR0
 120              		.cfi_endproc
 121              	.LFE41:
 122              		.size	Slider_IsNotifyEnabled, .-Slider_IsNotifyEnabled
 123              		.section	.text.Slider_GetValue,"ax",%progbits
 124              		.align	2
 125              		.global	Slider_GetValue
 126              		.code	16
 127              		.thumb_func
 128              		.type	Slider_GetValue, %function
 129              	Slider_GetValue:
 130              	.LFB38:
  28:Slider.c      ****     CYBLE_GATT_HANDLE_VALUE_PAIR_T sliderDataHandle;
 131              		.loc 1 28 0
 132              		.cfi_startproc
 133 0000 30B5     		push	{r4, r5, lr}
 134              		.cfi_def_cfa_offset 12
 135              		.cfi_offset 4, -12
 136              		.cfi_offset 5, -8
 137              		.cfi_offset 14, -4
 138 0002 85B0     		sub	sp, sp, #20
 139              		.cfi_def_cfa_offset 32
  32:Slider.c      ****     {
 140              		.loc 1 32 0
 141 0004 FFF7FEFF 		bl	CapSense_IsBusy
 142              	.LVL4:
 143 0008 0028     		cmp	r0, #0
 144 000a 04D1     		bne	.L12
  34:Slider.c      ****         CapSense_ScanWidget(CapSense_SLIDER_0__LS);
 145              		.loc 1 34 0
 146 000c FFF7FEFF 		bl	CapSense_UpdateEnabledBaselines
 147              	.LVL5:
  35:Slider.c      ****     }
 148              		.loc 1 35 0
 149 0010 0020     		mov	r0, #0
 150 0012 FFF7FEFF 		bl	CapSense_ScanWidget
 151              	.LVL6:
 152              	.L12:
  37:Slider.c      ****     if (capSenseData != 0xFFFF)
 153              		.loc 1 37 0
 154 0016 0020     		mov	r0, #0
 155 0018 FFF7FEFF 		bl	CapSense_GetCentroidPos
ARM GAS  C:\Users\a83571\AppData\Local\Temp\cceaSYZ4.s 			page 5


 156              	.LVL7:
 157 001c 041C     		mov	r4, r0
 158 001e 051E     		sub	r5, r0, #0
 159              	.LVL8:
  38:Slider.c      ****     {
 160              		.loc 1 38 0
 161 0020 114B     		ldr	r3, .L15
 162 0022 9D42     		cmp	r5, r3
 163 0024 0DD0     		beq	.L13
  40:Slider.c      ****         sliderDataHandle.attrHandle = CYBLE_CAPSLIDER_SLIDER_POS_CHAR_HANDLE;
 164              		.loc 1 40 0
 165 0026 6B46     		mov	r3, sp
 166 0028 D870     		strb	r0, [r3, #3]
 167 002a 0333     		add	r3, r3, #3
  41:Slider.c      ****         sliderDataHandle.value.len = sizeof(uint8);
 168              		.loc 1 41 0
 169 002c 01A8     		add	r0, sp, #4
 170              	.LVL9:
 171 002e 1022     		mov	r2, #16
 172 0030 0281     		strh	r2, [r0, #8]
  42:Slider.c      ****         sliderDataHandle.value.val = &sliderPos;
 173              		.loc 1 42 0
 174 0032 0F3A     		sub	r2, r2, #15
 175 0034 8280     		strh	r2, [r0, #4]
  43:Slider.c      ****         // update gatt database
 176              		.loc 1 43 0
 177 0036 0193     		str	r3, [sp, #4]
  45:Slider.c      ****     }
 178              		.loc 1 45 0
 179 0038 0021     		mov	r1, #0
 180 003a 0C4A     		ldr	r2, .L15+4
 181 003c 0023     		mov	r3, #0
 182 003e FFF7FEFF 		bl	CyBle_GattsWriteAttributeValue
 183              	.LVL10:
 184              	.L13:
  47:Slider.c      ****     {        
 185              		.loc 1 47 0
 186 0042 FFF7FEFF 		bl	Slider_IsNotifyEnabled
 187              	.LVL11:
 188 0046 0128     		cmp	r0, #1
 189 0048 0AD1     		bne	.L14
  47:Slider.c      ****     {        
 190              		.loc 1 47 0 is_stmt 0 discriminator 1
 191 004a 074B     		ldr	r3, .L15
 192 004c 9D42     		cmp	r5, r3
 193 004e 07D0     		beq	.L14
  50:Slider.c      ****     }
 194              		.loc 1 50 0 is_stmt 1
 195 0050 064A     		ldr	r2, .L15+4
 196 0052 1378     		ldrb	r3, [r2]
 197 0054 5078     		ldrb	r0, [r2, #1]
 198 0056 0002     		lsl	r0, r0, #8
 199 0058 1843     		orr	r0, r3
 200 005a 01A9     		add	r1, sp, #4
 201 005c FFF7FEFF 		bl	CyBle_GattsNotification
 202              	.LVL12:
 203              	.L14:
ARM GAS  C:\Users\a83571\AppData\Local\Temp\cceaSYZ4.s 			page 6


  53:Slider.c      **** 
 204              		.loc 1 53 0
 205 0060 201C     		mov	r0, r4
 206 0062 05B0     		add	sp, sp, #20
 207              		@ sp needed
 208 0064 30BD     		pop	{r4, r5, pc}
 209              	.L16:
 210 0066 C046     		.align	2
 211              	.L15:
 212 0068 FFFF0000 		.word	65535
 213 006c 00000000 		.word	cyBle_connHandle
 214              		.cfi_endproc
 215              	.LFE38:
 216              		.size	Slider_GetValue, .-Slider_GetValue
 217              		.bss
 218              		.set	.LANCHOR0,. + 0
 219              		.type	sliderNotifyEnable, %object
 220              		.size	sliderNotifyEnable, 1
 221              	sliderNotifyEnable:
 222 0000 00       		.space	1
 223              		.text
 224              	.Letext0:
 225              		.file 2 "Generated_Source\\PSoC4/cytypes.h"
 226              		.file 3 "Generated_Source\\PSoC4/BLE_Stack.h"
 227              		.file 4 "Generated_Source\\PSoC4/BLE_StackGatt.h"
 228              		.file 5 "Generated_Source\\PSoC4/BLE_StackGattServer.h"
 229              		.file 6 "Generated_Source\\PSoC4/CapSense.h"
 230              		.file 7 "Generated_Source\\PSoC4/CapSense_CSHL.h"
 231              		.file 8 "Generated_Source\\PSoC4/BLE_StackGattDb.h"
 232              		.file 9 "Generated_Source\\PSoC4/BLE_eventHandler.h"